	.arch armv8-a
	.file	"e_tls.c"
	.text
.Ltext0:
	.file 1 "/aws-lc/crypto/cipher_extra/e_tls.c"
	.section	.rodata.aead_tls_open.str1.8,"aMS",@progbits,1
	.align	3
.LC0:
	.string	"/aws-lc/crypto/cipher_extra/e_tls.c"
	.align	3
.LC1:
	.string	"total == in_len"
	.align	3
.LC2:
	.string	"data_plus_mac_len >= HMAC_size(&tls_ctx->hmac_ctx)"
	.align	3
.LC3:
	.string	"mac_len == HMAC_size(&tls_ctx->hmac_ctx)"
	.align	3
.LC4:
	.string	"EVP_CIPHER_CTX_mode(&tls_ctx->cipher_ctx) != EVP_CIPH_CBC_MODE"
	.section	.text.aead_tls_open,"ax",@progbits
	.align	2
	.p2align 4,,11
	.type	aead_tls_open, %function
aead_tls_open:
.LVL0:
.LFB156:
	.file 2 "/aws-lc/crypto/cipher_extra/e_tls.c"
	.loc 2 244 60 view -0
	.cfi_startproc
	.loc 2 245 3 view .LVU1
	.loc 2 244 60 is_stmt 0 view .LVU2
	sub	sp, sp, #288
	.cfi_def_cfa_offset 288
	stp	x29, x30, [sp, 16]
	.cfi_offset 29, -272
	.cfi_offset 30, -264
	add	x29, sp, 16
	stp	x25, x26, [sp, 80]
	.cfi_offset 25, -208
	.cfi_offset 26, -200
	.loc 2 245 17 view .LVU3
	ldr	x25, [x0, 8]
.LVL1:
	.loc 2 247 3 is_stmt 1 view .LVU4
	.loc 2 244 60 is_stmt 0 view .LVU5
	stp	x19, x20, [sp, 32]
	.cfi_offset 19, -256
	.cfi_offset 20, -248
	mov	x20, x0
	.loc 2 247 6 view .LVU6
	ldr	w0, [x25, 28]
.LVL2:
	.loc 2 247 6 view .LVU7
	cbnz	w0, .L56
	.loc 2 253 3 is_stmt 1 view .LVU8
	stp	x27, x28, [sp, 96]
	.cfi_offset 28, -184
	.cfi_offset 27, -192
	.loc 2 253 26 is_stmt 0 view .LVU9
	add	x28, x25, 152
	mov	x26, x4
	mov	x27, x2
	mov	x19, x7
	.loc 2 253 16 view .LVU10
	mov	x0, x28
	stp	x21, x22, [sp, 48]
	.cfi_offset 22, -232
	.cfi_offset 21, -240
	mov	x21, x3
	mov	x22, x5
	stp	x23, x24, [sp, 64]
	.cfi_offset 24, -216
	.cfi_offset 23, -224
	mov	x23, x1
	mov	x24, x6
	.loc 2 253 16 view .LVU11
	bl	aws_lc_0_22_0_HMAC_size
.LVL3:
	.loc 2 254 5 is_stmt 1 view .LVU12
	adrp	x3, .LC0
	mov	w4, 254
	.loc 2 253 6 is_stmt 0 view .LVU13
	cmp	x0, x19
	bhi	.L53
	.loc 2 258 3 is_stmt 1 view .LVU14
	.loc 2 258 6 is_stmt 0 view .LVU15
	cmp	x19, x21
	bhi	.L57
	.loc 2 265 3 is_stmt 1 view .LVU16
	.loc 2 265 20 is_stmt 0 view .LVU17
	ldr	x0, [x20]
	bl	aws_lc_0_22_0_EVP_AEAD_nonce_length
.LVL4:
	.loc 2 265 6 view .LVU18
	cmp	x0, x22
	bne	.L58
	.loc 2 270 3 is_stmt 1 view .LVU19
	.loc 2 270 6 is_stmt 0 view .LVU20
	ldr	x0, [sp, 296]
	cmp	x0, 11
	bne	.L59
	.loc 2 275 3 is_stmt 1 view .LVU21
	.loc 2 275 6 is_stmt 0 view .LVU22
	mov	x0, 2147483647
	cmp	x19, x0
	bhi	.L60
	.loc 2 282 3 is_stmt 1 view .LVU23
	.loc 2 282 7 is_stmt 0 view .LVU24
	mov	x0, x25
	bl	aws_lc_0_22_0_EVP_CIPHER_CTX_mode
.LVL5:
	.loc 2 282 6 view .LVU25
	cmp	w0, 2
	bne	.L13
	.loc 2 282 70 discriminator 1 view .LVU26
	ldrb	w0, [x25, 889]
	cbz	w0, .L61
.L13:
	.loc 2 289 3 is_stmt 1 view .LVU27
.LVL6:
	.loc 2 290 3 view .LVU28
	.loc 2 291 3 view .LVU29
	.loc 2 291 8 is_stmt 0 view .LVU30
	add	x20, sp, 116
.LVL7:
	.loc 2 291 8 view .LVU31
	mov	x3, x24
	mov	x2, x20
	mov	w4, w19
	mov	x1, x23
	mov	x0, x25
	bl	aws_lc_0_22_0_EVP_DecryptUpdate
.LVL8:
	.loc 2 291 6 view .LVU32
	cbnz	w0, .L62
.LVL9:
.L52:
	.loc 2 291 6 view .LVU33
	ldp	x21, x22, [sp, 48]
	.cfi_restore 22
	.cfi_restore 21
	ldp	x23, x24, [sp, 64]
	.cfi_restore 24
	.cfi_restore 23
.LVL10:
	.loc 2 291 6 view .LVU34
	ldp	x27, x28, [sp, 96]
	.cfi_restore 28
	.cfi_restore 27
.LVL11:
	.p2align 3,,7
.L3:
	.loc 2 250 12 view .LVU35
	mov	w0, 0
.L1:
	.loc 2 392 1 view .LVU36
	ldp	x29, x30, [sp, 16]
	ldp	x19, x20, [sp, 32]
	ldp	x25, x26, [sp, 80]
.LVL12:
	.loc 2 392 1 view .LVU37
	add	sp, sp, 288
	.cfi_remember_state
	.cfi_restore 29
	.cfi_restore 30
	.cfi_restore 25
	.cfi_restore 26
	.cfi_restore 19
	.cfi_restore 20
	.cfi_def_cfa_offset 0
.LVL13:
	.loc 2 392 1 view .LVU38
	ret
.LVL14:
	.p2align 2,,3
.L56:
	.cfi_restore_state
	.loc 2 249 5 is_stmt 1 view .LVU39
	adrp	x3, .LC0
.LVL15:
	.loc 2 249 5 is_stmt 0 view .LVU40
	mov	w4, 249
.LVL16:
	.loc 2 249 5 view .LVU41
	add	x3, x3, :lo12:.LC0
	mov	w2, 112
.LVL17:
	.loc 2 249 5 view .LVU42
	mov	w1, 0
.LVL18:
	.loc 2 249 5 view .LVU43
	mov	w0, 30
	bl	aws_lc_0_22_0_ERR_put_error
.LVL19:
	.loc 2 250 5 is_stmt 1 view .LVU44
	.loc 2 250 12 is_stmt 0 view .LVU45
	b	.L3
.LVL20:
	.p2align 2,,3
.L57:
	.cfi_offset 21, -240
	.cfi_offset 22, -232
	.cfi_offset 23, -224
	.cfi_offset 24, -216
	.cfi_offset 27, -192
	.cfi_offset 28, -184
	.loc 2 261 5 is_stmt 1 view .LVU46
	adrp	x3, .LC0
	add	x3, x3, :lo12:.LC0
	mov	w4, 261
	mov	w2, 103
.LVL21:
.L54:
	.loc 2 381 5 is_stmt 0 view .LVU47
	mov	w1, 0
	mov	w0, 30
	bl	aws_lc_0_22_0_ERR_put_error
.LVL22:
	.loc 2 382 5 is_stmt 1 view .LVU48
	.loc 2 382 12 is_stmt 0 view .LVU49
	ldp	x21, x22, [sp, 48]
	.cfi_remember_state
	.cfi_restore 22
	.cfi_restore 21
	ldp	x23, x24, [sp, 64]
	.cfi_restore 24
	.cfi_restore 23
.LVL23:
	.loc 2 382 12 view .LVU50
	ldp	x27, x28, [sp, 96]
	.cfi_restore 28
	.cfi_restore 27
.LVL24:
	.loc 2 382 12 view .LVU51
	b	.L3
.LVL25:
	.p2align 2,,3
.L59:
	.cfi_restore_state
	.loc 2 271 5 is_stmt 1 view .LVU52
	adrp	x3, .LC0
	mov	w4, 271
	add	x3, x3, :lo12:.LC0
	mov	w2, 109
	b	.L54
.LVL26:
.L69:
	.loc 2 381 5 view .LVU53
	adrp	x3, .LC0
	mov	w4, 381
.LVL27:
	.p2align 3,,7
.L53:
	.loc 2 381 5 is_stmt 0 view .LVU54
	add	x3, x3, :lo12:.LC0
	mov	w2, 101
	b	.L54
.LVL28:
	.p2align 2,,3
.L58:
	.loc 2 266 5 is_stmt 1 view .LVU55
	adrp	x3, .LC0
	mov	w4, 266
	add	x3, x3, :lo12:.LC0
	mov	w2, 111
	b	.L54
	.p2align 2,,3
.L60:
	.loc 2 277 5 view .LVU56
	adrp	x3, .LC0
	mov	w4, 277
	add	x3, x3, :lo12:.LC0
	mov	w2, 117
	b	.L54
.LVL29:
	.p2align 2,,3
.L62:
	.loc 2 294 3 view .LVU57
	.loc 2 294 9 is_stmt 0 view .LVU58
	ldrsw	x21, [sp, 116]
.LVL30:
	.loc 2 295 3 is_stmt 1 view .LVU59
	.loc 2 295 8 is_stmt 0 view .LVU60
	mov	x2, x20
	mov	x0, x25
	add	x1, x23, x21
	bl	aws_lc_0_22_0_EVP_DecryptFinal_ex
.LVL31:
	.loc 2 295 6 view .LVU61
	cbz	w0, .L52
	.loc 2 298 3 is_stmt 1 view .LVU62
	.loc 2 298 9 is_stmt 0 view .LVU63
	ldrsw	x20, [sp, 116]
	add	x20, x20, x21
.LVL32:
	.loc 2 299 3 is_stmt 1 view .LVU64
	cmp	x19, x20
	bne	.L63
	.loc 2 301 31 view .LVU65
	.loc 2 305 3 view .LVU66
	.loc 2 306 3 view .LVU67
	.loc 2 307 3 view .LVU68
	.loc 2 307 7 is_stmt 0 view .LVU69
	mov	x0, x25
	bl	aws_lc_0_22_0_EVP_CIPHER_CTX_mode
.LVL33:
	.loc 2 307 6 view .LVU70
	cmp	w0, 2
	beq	.L64
	.loc 2 317 5 is_stmt 1 view .LVU71
	.loc 2 317 16 is_stmt 0 view .LVU72
	mov	x1, -1
	.loc 2 321 5 view .LVU73
	mov	x0, x28
	.loc 2 317 16 view .LVU74
	stp	x19, x1, [sp, 120]
	.loc 2 318 5 is_stmt 1 view .LVU75
	.loc 2 321 5 view .LVU76
	bl	aws_lc_0_22_0_HMAC_size
.LVL34:
	ldr	x19, [sp, 120]
.LVL35:
	.loc 2 321 5 is_stmt 0 view .LVU77
	cmp	x0, x19
	bhi	.L65
.L17:
	.loc 2 323 3 is_stmt 1 view .LVU78
	.loc 2 323 41 is_stmt 0 view .LVU79
	mov	x0, x28
	bl	aws_lc_0_22_0_HMAC_size
.LVL36:
.LBB35:
.LBB36:
	.file 3 "/aws-lc/crypto/cipher_extra/../fipsmodule/cipher/../../internal.h"
	.loc 3 939 10 view .LVU80
	ldr	x1, [sp, 288]
.LBE36:
.LBE35:
	.loc 2 323 10 view .LVU81
	sub	x19, x19, x0
.LBB41:
.LBB37:
	.loc 3 939 10 view .LVU82
	ldr	x2, [sp, 288]
	add	x21, sp, 144
	ldr	w1, [x1, 7]
.LVL37:
	.loc 3 939 10 view .LVU83
.LBE37:
.LBE41:
	.loc 2 331 3 is_stmt 1 view .LVU84
	.loc 2 332 3 view .LVU85
.LBB42:
.LBI35:
	.loc 3 934 21 view .LVU86
.LBB38:
	.loc 3 935 3 view .LVU87
	.loc 3 939 3 view .LVU88
.LBE38:
.LBE42:
	.loc 2 342 7 is_stmt 0 view .LVU89
	mov	x0, x25
.LBB43:
.LBB39:
	.loc 3 939 10 view .LVU90
	ldr	x2, [x2]
.LVL38:
	.loc 3 939 10 view .LVU91
	str	x2, [sp, 144]
.LBE39:
.LBE43:
	.loc 2 333 16 view .LVU92
	rev16	w2, w19
	strh	w2, [sp, 155]
.LBB44:
.LBB40:
	.loc 3 939 10 view .LVU93
	str	w1, [x21, 7]
.LVL39:
	.loc 3 939 10 view .LVU94
.LBE40:
.LBE44:
	.loc 2 333 3 is_stmt 1 view .LVU95
	.loc 2 334 3 view .LVU96
	.loc 2 335 3 view .LVU97
	.loc 2 338 3 view .LVU98
	.loc 2 339 3 view .LVU99
	.loc 2 340 3 view .LVU100
	.loc 2 341 3 view .LVU101
	.loc 2 342 3 view .LVU102
	.loc 2 342 7 is_stmt 0 view .LVU103
	bl	aws_lc_0_22_0_EVP_CIPHER_CTX_mode
.LVL40:
	.loc 2 342 6 view .LVU104
	cmp	w0, 2
	beq	.L66
.L18:
.LBB45:
	.loc 2 357 5 is_stmt 1 view .LVU105
	mov	x0, x25
	bl	aws_lc_0_22_0_EVP_CIPHER_CTX_mode
.LVL41:
	cmp	w0, 2
	beq	.L67
	.loc 2 359 5 view .LVU106
	.loc 2 360 5 view .LVU107
	.loc 2 360 10 is_stmt 0 view .LVU108
	mov	x0, x28
	mov	x4, 0
	mov	x3, 0
	mov	x2, 0
	mov	x1, 0
	bl	aws_lc_0_22_0_HMAC_Init_ex
.LVL42:
	.loc 2 360 8 view .LVU109
	cbz	w0, .L52
	.loc 2 361 10 discriminator 1 view .LVU110
	mov	x1, x21
	mov	x0, x28
	mov	x2, 13
	bl	aws_lc_0_22_0_HMAC_Update
.LVL43:
	.loc 2 360 64 discriminator 1 view .LVU111
	cbz	w0, .L52
	.loc 2 362 10 view .LVU112
	mov	x2, x19
	mov	x1, x23
	mov	x0, x28
	bl	aws_lc_0_22_0_HMAC_Update
.LVL44:
	.loc 2 361 60 view .LVU113
	cbz	w0, .L52
	.loc 2 363 10 view .LVU114
	add	x22, sp, 160
.LVL45:
	.loc 2 363 10 view .LVU115
	add	x2, sp, 224
	mov	x1, x22
	mov	x0, x28
	bl	aws_lc_0_22_0_HMAC_Final
.LVL46:
	.loc 2 362 57 view .LVU116
	cbz	w0, .L52
	.loc 2 366 5 is_stmt 1 view .LVU117
	.loc 2 366 13 is_stmt 0 view .LVU118
	ldr	w1, [sp, 224]
	.loc 2 368 5 view .LVU119
	mov	x0, x28
	.loc 2 366 13 view .LVU120
	str	x1, [sp, 136]
	.loc 2 368 5 is_stmt 1 view .LVU121
	bl	aws_lc_0_22_0_HMAC_size
.LVL47:
	mov	x1, x0
	ldr	x2, [sp, 136]
	.loc 2 369 16 is_stmt 0 view .LVU122
	add	x0, x23, x19
	.loc 2 368 5 view .LVU123
	cmp	x1, x2
	bne	.L68
.LVL48:
.L21:
	.loc 2 368 5 view .LVU124
.LBE45:
	.loc 2 376 3 is_stmt 1 view .LVU125
	.loc 2 377 7 is_stmt 0 view .LVU126
	mov	x1, x22
	bl	aws_lc_0_22_0_CRYPTO_memcmp
.LVL49:
.LBB46:
.LBI46:
	.loc 3 436 29 is_stmt 1 view .LVU127
	.loc 3 437 3 view .LVU128
.LBB47:
.LBI47:
	.loc 3 423 29 view .LVU129
.LBB48:
	.loc 3 425 3 view .LVU130
.LBE48:
.LBE47:
.LBE46:
	.loc 2 378 8 is_stmt 0 view .LVU131
	ldr	x1, [sp, 128]
.LBB59:
.LBB57:
.LBB55:
	.loc 3 425 10 view .LVU132
	sxtw	x0, w0
.LVL50:
.LBB49:
.LBI49:
	.loc 3 401 29 is_stmt 1 view .LVU133
.LBB50:
	.loc 3 413 3 view .LVU134
.LBB51:
.LBI51:
	.loc 3 342 29 view .LVU135
.LBB52:
	.loc 3 343 3 view .LVU136
	.loc 3 343 3 is_stmt 0 view .LVU137
.LBE52:
.LBE51:
.LBE50:
.LBE49:
.LBE55:
.LBE57:
.LBE59:
	.loc 2 378 3 is_stmt 1 view .LVU138
	.loc 2 379 44 view .LVU139
	.loc 2 380 3 view .LVU140
.LBB60:
.LBB58:
.LBB56:
.LBB54:
.LBB53:
	.loc 3 413 38 is_stmt 0 view .LVU141
	sub	x2, x0, #1
	.loc 3 413 10 view .LVU142
	bic	x0, x2, x0
.LVL51:
	.loc 3 413 10 view .LVU143
.LBE53:
.LBE54:
.LBE56:
.LBE58:
.LBE60:
	.loc 2 380 6 view .LVU144
	tst	x1, x0, asr 63
	beq	.L69
	.loc 2 385 52 is_stmt 1 view .LVU145
	.loc 2 386 38 view .LVU146
	.loc 2 390 3 view .LVU147
	.loc 2 390 12 is_stmt 0 view .LVU148
	ldp	x21, x22, [sp, 48]
	.cfi_remember_state
	.cfi_restore 22
	.cfi_restore 21
	.loc 2 391 10 view .LVU149
	mov	w0, 1
	.loc 2 390 12 view .LVU150
	ldp	x23, x24, [sp, 64]
	.cfi_restore 24
	.cfi_restore 23
.LVL52:
	.loc 2 390 12 view .LVU151
	str	x19, [x27]
	.loc 2 391 3 is_stmt 1 view .LVU152
	.loc 2 390 12 is_stmt 0 view .LVU153
	ldp	x27, x28, [sp, 96]
	.cfi_restore 28
	.cfi_restore 27
.LVL53:
	.loc 2 391 10 view .LVU154
	b	.L1
.LVL54:
	.p2align 2,,3
.L61:
	.cfi_restore_state
	.loc 2 284 8 view .LVU155
	mov	x4, x26
	mov	x0, x25
	mov	x3, 0
	mov	x2, 0
	mov	x1, 0
	bl	aws_lc_0_22_0_EVP_DecryptInit_ex
.LVL55:
	.loc 2 283 29 view .LVU156
	cbnz	w0, .L13
	b	.L52
.LVL56:
	.p2align 2,,3
.L64:
	.loc 2 308 5 is_stmt 1 view .LVU157
	.loc 2 310 13 is_stmt 0 view .LVU158
	mov	x0, x25
	bl	aws_lc_0_22_0_EVP_CIPHER_CTX_block_size
.LVL57:
	mov	w21, w0
	.loc 2 308 10 view .LVU159
	mov	x0, x28
	bl	aws_lc_0_22_0_HMAC_size
.LVL58:
	mov	x5, x0
	uxtw	x4, w21
	mov	x3, x19
	mov	x2, x23
	add	x1, sp, 120
	add	x0, sp, 128
	bl	aws_lc_0_22_0_EVP_tls_cbc_remove_padding
.LVL59:
	.loc 2 313 7 is_stmt 1 view .LVU160
	adrp	x3, .LC0
	mov	w4, 313
	.loc 2 308 8 is_stmt 0 view .LVU161
	cbz	w0, .L53
	.loc 2 323 39 view .LVU162
	ldr	x19, [sp, 120]
.LVL60:
	.loc 2 323 39 view .LVU163
	b	.L17
.LVL61:
.L66:
	.loc 2 343 7 discriminator 1 view .LVU164
	ldr	x0, [x25, 152]
	bl	aws_lc_0_22_0_EVP_tls_cbc_record_digest_supported
.LVL62:
	.loc 2 342 70 discriminator 1 view .LVU165
	cbz	w0, .L18
	.loc 2 344 5 is_stmt 1 view .LVU166
	.loc 2 344 10 is_stmt 0 view .LVU167
	ldr	x0, [x25, 152]
	add	x22, sp, 160
.LVL63:
	.loc 2 344 10 view .LVU168
	ldrb	w1, [x25, 888]
	mov	x3, x21
	str	w1, [sp]
	mov	x4, x23
	add	x7, x25, 824
	mov	x6, x20
	mov	x5, x19
	add	x2, sp, 136
	mov	x1, x22
	bl	aws_lc_0_22_0_EVP_tls_cbc_digest_record
.LVL64:
	.loc 2 347 7 is_stmt 1 view .LVU169
	adrp	x3, .LC0
	mov	w4, 347
	.loc 2 344 8 is_stmt 0 view .LVU170
	cbz	w0, .L53
	.loc 2 350 5 is_stmt 1 view .LVU171
	mov	x0, x28
	bl	aws_lc_0_22_0_HMAC_size
.LVL65:
	ldr	x2, [sp, 136]
	mov	x1, x0
	cmp	x0, x2
	bne	.L70
	.loc 2 352 5 view .LVU172
.LVL66:
	.loc 2 353 5 view .LVU173
	ldr	x3, [sp, 120]
	add	x0, sp, 224
.LVL67:
	.loc 2 353 5 is_stmt 0 view .LVU174
	mov	x4, x20
	mov	x2, x23
	mov	x20, x0
.LVL68:
	.loc 2 353 5 view .LVU175
	bl	aws_lc_0_22_0_EVP_tls_cbc_copy_mac
.LVL69:
	.loc 2 377 7 view .LVU176
	ldr	x2, [sp, 136]
	.loc 2 352 16 view .LVU177
	mov	x0, x20
	.loc 2 353 5 view .LVU178
	b	.L21
.LVL70:
.L65:
	.loc 2 321 5 discriminator 1 view .LVU179
	adrp	x3, __PRETTY_FUNCTION__.1
	adrp	x1, .LC0
	adrp	x0, .LC2
	add	x3, x3, :lo12:__PRETTY_FUNCTION__.1
	add	x1, x1, :lo12:.LC0
	add	x0, x0, :lo12:.LC2
	mov	w2, 321
	bl	__assert_fail
.LVL71:
.L68:
.LBB61:
	.loc 2 368 5 discriminator 1 view .LVU180
	adrp	x3, __PRETTY_FUNCTION__.1
	adrp	x1, .LC0
	adrp	x0, .LC3
	add	x3, x3, :lo12:__PRETTY_FUNCTION__.1
	add	x1, x1, :lo12:.LC0
	add	x0, x0, :lo12:.LC3
	mov	w2, 368
	bl	__assert_fail
.LVL72:
.L67:
	.loc 2 357 5 discriminator 1 view .LVU181
	adrp	x3, __PRETTY_FUNCTION__.1
	adrp	x1, .LC0
	adrp	x0, .LC4
	add	x3, x3, :lo12:__PRETTY_FUNCTION__.1
	add	x1, x1, :lo12:.LC0
	add	x0, x0, :lo12:.LC4
	mov	w2, 357
	bl	__assert_fail
.LVL73:
.L63:
	.loc 2 357 5 discriminator 1 view .LVU182
.LBE61:
	.loc 2 299 3 discriminator 1 view .LVU183
	adrp	x3, __PRETTY_FUNCTION__.1
	adrp	x1, .LC0
	adrp	x0, .LC1
	add	x3, x3, :lo12:__PRETTY_FUNCTION__.1
	add	x1, x1, :lo12:.LC0
	add	x0, x0, :lo12:.LC1
	mov	w2, 299
	bl	__assert_fail
.LVL74:
.L70:
	.loc 2 350 5 discriminator 1 view .LVU184
	adrp	x3, __PRETTY_FUNCTION__.1
	adrp	x1, .LC0
	adrp	x0, .LC3
	add	x3, x3, :lo12:__PRETTY_FUNCTION__.1
	add	x1, x1, :lo12:.LC0
	add	x0, x0, :lo12:.LC3
	mov	w2, 350
	bl	__assert_fail
.LVL75:
	.cfi_endproc
.LFE156:
	.size	aead_tls_open, .-aead_tls_open
	.section	.text.aead_tls_cleanup,"ax",@progbits
	.align	2
	.p2align 4,,11
	.type	aead_tls_cleanup, %function
aead_tls_cleanup:
.LVL76:
.LFB152:
	.loc 2 48 49 is_stmt 1 view -0
	.cfi_startproc
	.loc 2 49 3 view .LVU186
	.loc 2 48 49 is_stmt 0 view .LVU187
	stp	x29, x30, [sp, -32]!
	.cfi_def_cfa_offset 32
	.cfi_offset 29, -32
	.cfi_offset 30, -24
	mov	x29, sp
	stp	x19, x20, [sp, 16]
	.cfi_offset 19, -16
	.cfi_offset 20, -8
	.loc 2 48 49 view .LVU188
	mov	x19, x0
	.loc 2 49 17 view .LVU189
	ldr	x20, [x0, 8]
.LVL77:
	.loc 2 50 3 is_stmt 1 view .LVU190
	mov	x0, x20
.LVL78:
	.loc 2 50 3 is_stmt 0 view .LVU191
	bl	aws_lc_0_22_0_EVP_CIPHER_CTX_cleanup
.LVL79:
	.loc 2 51 3 is_stmt 1 view .LVU192
	add	x0, x20, 152
	bl	aws_lc_0_22_0_HMAC_CTX_cleanup
.LVL80:
	.loc 2 52 3 view .LVU193
	mov	x0, x20
	bl	aws_lc_0_22_0_OPENSSL_free
.LVL81:
	.loc 2 53 3 view .LVU194
	.loc 2 53 18 is_stmt 0 view .LVU195
	str	xzr, [x19, 8]
	.loc 2 54 1 view .LVU196
	ldp	x19, x20, [sp, 16]
.LVL82:
	.loc 2 54 1 view .LVU197
	ldp	x29, x30, [sp], 32
	.cfi_restore 30
	.cfi_restore 29
	.cfi_restore 19
	.cfi_restore 20
	.cfi_def_cfa_offset 0
	ret
	.cfi_endproc
.LFE152:
	.size	aead_tls_cleanup, .-aead_tls_cleanup
	.section	.text.aead_tls_get_iv,"ax",@progbits
	.align	2
	.p2align 4,,11
	.type	aead_tls_get_iv, %function
aead_tls_get_iv:
.LVL83:
.LFB166:
	.loc 2 461 48 is_stmt 1 view -0
	.cfi_startproc
	.loc 2 462 3 view .LVU199
	.loc 2 461 48 is_stmt 0 view .LVU200
	stp	x29, x30, [sp, -48]!
	.cfi_def_cfa_offset 48
	.cfi_offset 29, -48
	.cfi_offset 30, -40
	mov	x29, sp
	stp	x19, x20, [sp, 16]
	.cfi_offset 19, -32
	.cfi_offset 20, -24
	mov	x20, x2
	.loc 2 462 23 view .LVU201
	ldr	x19, [x0, 8]
.LVL84:
	.loc 2 463 3 is_stmt 1 view .LVU202
	.loc 2 461 48 is_stmt 0 view .LVU203
	str	x21, [sp, 32]
	.cfi_offset 21, -16
	.loc 2 461 48 view .LVU204
	mov	x21, x1
	.loc 2 463 25 view .LVU205
	mov	x0, x19
.LVL85:
	.loc 2 463 25 view .LVU206
	bl	aws_lc_0_22_0_EVP_CIPHER_CTX_iv_length
.LVL86:
	.loc 2 464 3 is_stmt 1 view .LVU207
	.loc 2 464 6 is_stmt 0 view .LVU208
	cmp	w0, 1
	bls	.L75
	.loc 2 468 13 view .LVU209
	add	x19, x19, 52
.LVL87:
	.loc 2 468 11 view .LVU210
	str	x19, [x21]
	uxtw	x1, w0
.LVL88:
	.loc 2 468 3 is_stmt 1 view .LVU211
	.loc 2 469 3 view .LVU212
	.loc 2 469 15 is_stmt 0 view .LVU213
	str	x1, [x20]
	.loc 2 470 3 is_stmt 1 view .LVU214
	.loc 2 471 1 is_stmt 0 view .LVU215
	ldp	x19, x20, [sp, 16]
.LVL89:
	.loc 2 470 10 view .LVU216
	mov	w0, 1
	.loc 2 471 1 view .LVU217
	ldr	x21, [sp, 32]
.LVL90:
	.loc 2 471 1 view .LVU218
	ldp	x29, x30, [sp], 48
	.cfi_remember_state
	.cfi_restore 30
	.cfi_restore 29
	.cfi_restore 21
	.cfi_restore 19
	.cfi_restore 20
	.cfi_def_cfa_offset 0
	ret
.LVL91:
	.p2align 2,,3
.L75:
	.cfi_restore_state
	.loc 2 471 1 view .LVU219
	ldp	x19, x20, [sp, 16]
.LVL92:
	.loc 2 465 12 view .LVU220
	mov	w0, 0
.LVL93:
	.loc 2 471 1 view .LVU221
	ldr	x21, [sp, 32]
.LVL94:
	.loc 2 471 1 view .LVU222
	ldp	x29, x30, [sp], 48
	.cfi_restore 30
	.cfi_restore 29
	.cfi_restore 21
	.cfi_restore 19
	.cfi_restore 20
	.cfi_def_cfa_offset 0
	ret
	.cfi_endproc
.LFE166:
	.size	aead_tls_get_iv, .-aead_tls_get_iv
	.section	.rodata.aead_tls_tag_len.str1.8,"aMS",@progbits,1
	.align	3
.LC5:
	.string	"extra_in_len == 0"
	.align	3
.LC6:
	.string	"block_size != 0 && (block_size & (block_size - 1)) == 0"
	.section	.text.aead_tls_tag_len,"ax",@progbits
	.align	2
	.p2align 4,,11
	.type	aead_tls_tag_len, %function
aead_tls_tag_len:
.LVL95:
.LFB154:
	.loc 2 102 59 is_stmt 1 view -0
	.cfi_startproc
	.loc 2 103 3 view .LVU224
	.loc 2 102 59 is_stmt 0 view .LVU225
	stp	x29, x30, [sp, -48]!
	.cfi_def_cfa_offset 48
	.cfi_offset 29, -48
	.cfi_offset 30, -40
	mov	x29, sp
	stp	x19, x20, [sp, 16]
	str	x21, [sp, 32]
	.cfi_offset 19, -32
	.cfi_offset 20, -24
	.cfi_offset 21, -16
	.loc 2 103 3 view .LVU226
	cbnz	x2, .L86
	.loc 2 104 3 is_stmt 1 view .LVU227
	.loc 2 104 23 is_stmt 0 view .LVU228
	ldr	x21, [x0, 8]
.LVL96:
	.loc 2 106 3 is_stmt 1 view .LVU229
	mov	x20, x1
	.loc 2 106 27 is_stmt 0 view .LVU230
	add	x0, x21, 152
.LVL97:
	.loc 2 106 27 view .LVU231
	bl	aws_lc_0_22_0_HMAC_size
.LVL98:
	.loc 2 106 27 view .LVU232
	mov	x19, x0
	.loc 2 107 7 view .LVU233
	mov	x0, x21
.LVL99:
	.loc 2 107 3 is_stmt 1 view .LVU234
	.loc 2 107 7 is_stmt 0 view .LVU235
	bl	aws_lc_0_22_0_EVP_CIPHER_CTX_mode
.LVL100:
	.loc 2 107 6 view .LVU236
	cmp	w0, 2
	beq	.L87
	.loc 2 118 1 view .LVU237
	ldr	x21, [sp, 32]
.LVL101:
	.loc 2 118 1 view .LVU238
	mov	x0, x19
	ldp	x19, x20, [sp, 16]
.LVL102:
	.loc 2 118 1 view .LVU239
	ldp	x29, x30, [sp], 48
	.cfi_remember_state
	.cfi_restore 30
	.cfi_restore 29
	.cfi_restore 21
	.cfi_restore 19
	.cfi_restore 20
	.cfi_def_cfa_offset 0
	ret
.LVL103:
	.p2align 2,,3
.L87:
	.cfi_restore_state
	.loc 2 112 3 is_stmt 1 view .LVU240
	.loc 2 112 29 is_stmt 0 view .LVU241
	mov	x0, x21
	bl	aws_lc_0_22_0_EVP_CIPHER_CTX_block_size
.LVL104:
	.loc 2 112 16 view .LVU242
	uxtw	x2, w0
.LVL105:
	.loc 2 115 3 is_stmt 1 view .LVU243
	cbz	w0, .L80
	.loc 2 115 3 is_stmt 0 discriminator 2 view .LVU244
	sub	x0, x2, #1
	tst	x0, x2
	bne	.L80
	.loc 2 116 3 is_stmt 1 view .LVU245
.LVL106:
	.loc 2 117 3 view .LVU246
	.loc 2 116 47 is_stmt 0 view .LVU247
	add	x1, x19, x20
	.loc 2 117 19 view .LVU248
	add	x19, x19, x2
.LVL107:
	.loc 2 118 1 view .LVU249
	ldr	x21, [sp, 32]
.LVL108:
	.loc 2 116 59 view .LVU250
	udiv	x0, x1, x2
	msub	x0, x0, x2, x1
	.loc 2 117 19 view .LVU251
	sub	x19, x19, x0
	.loc 2 118 1 view .LVU252
	mov	x0, x19
	ldp	x19, x20, [sp, 16]
.LVL109:
	.loc 2 118 1 view .LVU253
	ldp	x29, x30, [sp], 48
	.cfi_remember_state
	.cfi_restore 30
	.cfi_restore 29
	.cfi_restore 21
	.cfi_restore 19
	.cfi_restore 20
	.cfi_def_cfa_offset 0
	ret
.LVL110:
.L86:
	.cfi_restore_state
	.loc 2 103 3 discriminator 1 view .LVU254
	adrp	x3, __PRETTY_FUNCTION__.3
	adrp	x1, .LC0
.LVL111:
	.loc 2 103 3 discriminator 1 view .LVU255
	adrp	x0, .LC5
.LVL112:
	.loc 2 103 3 discriminator 1 view .LVU256
	add	x3, x3, :lo12:__PRETTY_FUNCTION__.3
	add	x1, x1, :lo12:.LC0
	add	x0, x0, :lo12:.LC5
	mov	w2, 103
.LVL113:
	.loc 2 103 3 discriminator 1 view .LVU257
	bl	__assert_fail
.LVL114:
.L80:
.LBB64:
.LBI64:
	.loc 2 101 15 is_stmt 1 view .LVU258
.LBB65:
	.loc 2 115 3 is_stmt 0 view .LVU259
	adrp	x3, __PRETTY_FUNCTION__.3
	adrp	x1, .LC0
	adrp	x0, .LC6
	add	x3, x3, :lo12:__PRETTY_FUNCTION__.3
	add	x1, x1, :lo12:.LC0
	add	x0, x0, :lo12:.LC6
	mov	w2, 115
.LVL115:
	.loc 2 115 3 view .LVU260
	bl	__assert_fail
.LVL116:
.LBE65:
.LBE64:
	.cfi_endproc
.LFE154:
	.size	aead_tls_tag_len, .-aead_tls_tag_len
	.section	.rodata.aead_aes_128_cbc_sha256_tls_implicit_iv_init.str1.8,"aMS",@progbits,1
	.align	3
.LC7:
	.string	"mac_key_len + enc_key_len + (implicit_iv ? EVP_CIPHER_iv_length(cipher) : 0) == key_len"
	.align	3
.LC8:
	.string	"mac_key_len <= EVP_MAX_MD_SIZE"
	.section	.text.aead_aes_128_cbc_sha256_tls_implicit_iv_init,"ax",@progbits
	.align	2
	.p2align 4,,11
	.type	aead_aes_128_cbc_sha256_tls_implicit_iv_init, %function
aead_aes_128_cbc_sha256_tls_implicit_iv_init:
.LVL117:
.LFB162:
	.loc 2 432 36 is_stmt 1 view -0
	.cfi_startproc
	.loc 2 433 3 view .LVU262
	.loc 2 432 36 is_stmt 0 view .LVU263
	stp	x29, x30, [sp, -96]!
	.cfi_def_cfa_offset 96
	.cfi_offset 29, -96
	.cfi_offset 30, -88
	mov	x29, sp
	stp	x19, x20, [sp, 16]
	.cfi_offset 19, -80
	.cfi_offset 20, -72
	mov	x20, x3
	mov	x19, x0
	stp	x21, x22, [sp, 32]
	.cfi_offset 21, -64
	.cfi_offset 22, -56
	mov	x22, x1
	mov	x21, x2
	stp	x23, x24, [sp, 48]
	.cfi_offset 23, -48
	.cfi_offset 24, -40
	mov	w24, w4
	stp	x25, x26, [sp, 64]
	.cfi_offset 25, -32
	.cfi_offset 26, -24
	.loc 2 433 10 view .LVU264
	bl	aws_lc_0_22_0_EVP_aes_128_cbc
.LVL118:
	.loc 2 433 10 view .LVU265
	mov	x23, x0
	bl	aws_lc_0_22_0_EVP_sha256
.LVL119:
	mov	x25, x0
.LVL120:
.LBB72:
.LBI72:
	.loc 2 56 12 is_stmt 1 view .LVU266
.LBB73:
	.loc 2 60 3 view .LVU267
	.loc 2 60 6 is_stmt 0 view .LVU268
	cbz	x20, .L89
	.loc 2 60 60 view .LVU269
	bl	aws_lc_0_22_0_EVP_MD_size
.LVL121:
	.loc 2 60 46 view .LVU270
	cmp	x20, x0
	bne	.L112
.L89:
	.loc 2 65 3 is_stmt 1 view .LVU271
	.loc 2 65 18 is_stmt 0 view .LVU272
	ldr	x0, [x19]
	bl	aws_lc_0_22_0_EVP_AEAD_key_length
.LVL122:
	.loc 2 65 6 view .LVU273
	cmp	x21, x0
	bne	.L113
	.loc 2 70 3 is_stmt 1 view .LVU274
	.loc 2 70 24 is_stmt 0 view .LVU275
	mov	x0, x25
	str	x27, [sp, 80]
	.cfi_offset 27, -16
	.loc 2 70 24 view .LVU276
	bl	aws_lc_0_22_0_EVP_MD_size
.LVL123:
	mov	x26, x0
	.loc 2 71 24 view .LVU277
	mov	x0, x23
.LVL124:
	.loc 2 71 3 is_stmt 1 view .LVU278
	.loc 2 71 24 is_stmt 0 view .LVU279
	bl	aws_lc_0_22_0_EVP_CIPHER_key_length
.LVL125:
	mov	w27, w0
.LVL126:
	.loc 2 72 3 is_stmt 1 view .LVU280
	mov	x0, x23
.LVL127:
	.loc 2 72 3 is_stmt 0 view .LVU281
	bl	aws_lc_0_22_0_EVP_CIPHER_iv_length
.LVL128:
	add	x27, x26, w27, uxtw
.LVL129:
	.loc 2 72 3 view .LVU282
	add	x0, x27, w0, uxtw
	cmp	x21, x0
	bne	.L114
	.loc 2 76 3 is_stmt 1 view .LVU283
	.loc 2 76 27 is_stmt 0 view .LVU284
	mov	x0, 896
	bl	aws_lc_0_22_0_OPENSSL_malloc
.LVL130:
	mov	x20, x0
.LVL131:
	.loc 2 77 3 is_stmt 1 view .LVU285
	.loc 2 77 6 is_stmt 0 view .LVU286
	cbz	x0, .L111
	.loc 2 80 3 is_stmt 1 view .LVU287
	.loc 2 80 18 is_stmt 0 view .LVU288
	str	x0, [x19, 8]
	.loc 2 82 3 is_stmt 1 view .LVU289
	.loc 2 83 3 is_stmt 0 view .LVU290
	add	x21, x0, 152
.LVL132:
	.loc 2 82 3 view .LVU291
	bl	aws_lc_0_22_0_EVP_CIPHER_CTX_init
.LVL133:
	.loc 2 83 3 is_stmt 1 view .LVU292
	mov	x0, x21
	bl	aws_lc_0_22_0_HMAC_CTX_init
.LVL134:
	.loc 2 84 3 view .LVU293
	cmp	x26, 64
	bhi	.L115
	.loc 2 85 3 view .LVU294
.LVL135:
.LBB74:
.LBI74:
	.loc 3 934 21 view .LVU295
.LBB75:
	.loc 3 935 3 view .LVU296
	.loc 3 935 6 is_stmt 0 view .LVU297
	cbnz	x26, .L116
.L95:
.LVL136:
	.loc 3 935 6 view .LVU298
.LBE75:
.LBE74:
	.loc 2 86 3 is_stmt 1 view .LVU299
	.loc 2 89 8 is_stmt 0 view .LVU300
	cmp	w24, 1
	.loc 2 87 24 view .LVU301
	mov	w0, 1
	.loc 2 86 26 view .LVU302
	strb	w26, [x20, 888]
	.loc 2 87 3 is_stmt 1 view .LVU303
	.loc 2 89 8 is_stmt 0 view .LVU304
	add	x4, x22, x27
	.loc 2 87 24 view .LVU305
	strb	w0, [x20, 889]
	.loc 2 89 3 is_stmt 1 view .LVU306
	.loc 2 89 8 is_stmt 0 view .LVU307
	mov	x1, x23
	cset	w5, eq
	add	x3, x22, x26
	mov	x0, x20
	mov	x2, 0
	bl	aws_lc_0_22_0_EVP_CipherInit_ex
.LVL137:
	.loc 2 89 6 view .LVU308
	cbz	w0, .L97
	.loc 2 92 8 view .LVU309
	mov	x3, x25
	mov	x2, x26
	mov	x1, x22
	mov	x0, x21
	mov	x4, 0
	bl	aws_lc_0_22_0_HMAC_Init_ex
.LVL138:
	.loc 2 91 48 view .LVU310
	cbz	w0, .L97
	.loc 2 96 3 is_stmt 1 view .LVU311
	mov	x0, x20
	mov	w1, 0
	bl	aws_lc_0_22_0_EVP_CIPHER_CTX_set_padding
.LVL139:
	.loc 2 98 3 view .LVU312
	.loc 2 98 10 is_stmt 0 view .LVU313
	ldr	x27, [sp, 80]
	.cfi_restore 27
	mov	w0, 1
.LVL140:
	.loc 2 98 10 view .LVU314
.LBE73:
.LBE72:
	.loc 2 433 10 view .LVU315
	b	.L88
.LVL141:
	.p2align 2,,3
.L113:
.LBB82:
.LBB80:
	.loc 2 66 5 is_stmt 1 view .LVU316
	adrp	x3, .LC0
	mov	w4, 66
	add	x3, x3, :lo12:.LC0
	mov	w2, 102
	mov	w1, 0
	mov	w0, 30
	bl	aws_lc_0_22_0_ERR_put_error
.LVL142:
	.loc 2 67 5 view .LVU317
.L90:
	.loc 2 62 12 is_stmt 0 view .LVU318
	mov	w0, 0
.LVL143:
.L88:
	.loc 2 62 12 view .LVU319
.LBE80:
.LBE82:
	.loc 2 435 1 view .LVU320
	ldp	x19, x20, [sp, 16]
.LVL144:
	.loc 2 435 1 view .LVU321
	ldp	x21, x22, [sp, 32]
.LVL145:
	.loc 2 435 1 view .LVU322
	ldp	x23, x24, [sp, 48]
.LVL146:
	.loc 2 435 1 view .LVU323
	ldp	x25, x26, [sp, 64]
	ldp	x29, x30, [sp], 96
	.cfi_remember_state
	.cfi_restore 30
	.cfi_restore 29
	.cfi_restore 25
	.cfi_restore 26
	.cfi_restore 23
	.cfi_restore 24
	.cfi_restore 21
	.cfi_restore 22
	.cfi_restore 19
	.cfi_restore 20
	.cfi_def_cfa_offset 0
	ret
.LVL147:
	.p2align 2,,3
.L112:
	.cfi_restore_state
.LBB83:
.LBB81:
	.loc 2 61 5 is_stmt 1 view .LVU324
	adrp	x3, .LC0
	mov	w4, 61
	add	x3, x3, :lo12:.LC0
	mov	w2, 122
	mov	w1, 0
	mov	w0, 30
	bl	aws_lc_0_22_0_ERR_put_error
.LVL148:
	.loc 2 62 5 view .LVU325
	.loc 2 62 12 is_stmt 0 view .LVU326
	b	.L90
.LVL149:
	.p2align 2,,3
.L116:
	.cfi_offset 27, -16
.LBB77:
.LBB76:
	.loc 3 939 3 is_stmt 1 view .LVU327
	.loc 3 939 10 is_stmt 0 view .LVU328
	mov	x2, x26
	mov	x1, x22
	add	x0, x20, 824
	bl	memcpy
.LVL150:
	b	.L95
.LVL151:
	.p2align 2,,3
.L97:
	.loc 3 939 10 view .LVU329
.LBE76:
.LBE77:
	.loc 2 93 5 is_stmt 1 view .LVU330
.LBB78:
.LBI78:
	.loc 2 48 13 view .LVU331
.LBB79:
	.loc 2 49 3 view .LVU332
	.loc 2 49 17 is_stmt 0 view .LVU333
	ldr	x20, [x19, 8]
.LVL152:
	.loc 2 50 3 is_stmt 1 view .LVU334
	mov	x0, x20
	bl	aws_lc_0_22_0_EVP_CIPHER_CTX_cleanup
.LVL153:
	.loc 2 51 3 view .LVU335
	add	x0, x20, 152
	bl	aws_lc_0_22_0_HMAC_CTX_cleanup
.LVL154:
	.loc 2 52 3 view .LVU336
	mov	x0, x20
	bl	aws_lc_0_22_0_OPENSSL_free
.LVL155:
	.loc 2 53 3 view .LVU337
	.loc 2 54 1 is_stmt 0 view .LVU338
	ldr	x27, [sp, 80]
	.cfi_remember_state
	.cfi_restore 27
	.loc 2 53 18 view .LVU339
	str	xzr, [x19, 8]
	.loc 2 54 1 view .LVU340
	b	.L90
.LVL156:
	.p2align 2,,3
.L111:
	.cfi_restore_state
	.loc 2 54 1 view .LVU341
	ldr	x27, [sp, 80]
	.cfi_remember_state
	.cfi_restore 27
	b	.L90
.LVL157:
.L114:
	.cfi_restore_state
	.loc 2 54 1 view .LVU342
.LBE79:
.LBE78:
	.loc 2 72 3 view .LVU343
	adrp	x3, __PRETTY_FUNCTION__.0
	adrp	x1, .LC0
	adrp	x0, .LC7
	add	x3, x3, :lo12:__PRETTY_FUNCTION__.0
	add	x1, x1, :lo12:.LC0
	add	x0, x0, :lo12:.LC7
	mov	w2, 72
	bl	__assert_fail
.LVL158:
.L115:
	.loc 2 84 3 view .LVU344
	adrp	x3, __PRETTY_FUNCTION__.0
	adrp	x1, .LC0
	adrp	x0, .LC8
	add	x3, x3, :lo12:__PRETTY_FUNCTION__.0
	add	x1, x1, :lo12:.LC0
	add	x0, x0, :lo12:.LC8
	mov	w2, 84
	bl	__assert_fail
.LVL159:
.LBE81:
.LBE83:
	.cfi_endproc
.LFE162:
	.size	aead_aes_128_cbc_sha256_tls_implicit_iv_init, .-aead_aes_128_cbc_sha256_tls_implicit_iv_init
	.section	.rodata.aead_tls_seal_scatter.str1.8,"aMS",@progbits,1
	.align	3
.LC9:
	.string	"len + block_size - early_mac_len == in_len"
	.align	3
.LC10:
	.string	"buf_len == (int)block_size"
	.align	3
.LC11:
	.string	"block_size <= 256"
	.align	3
.LC12:
	.string	"EVP_CIPHER_CTX_mode(&tls_ctx->cipher_ctx) == EVP_CIPH_CBC_MODE"
	.align	3
.LC13:
	.string	"len == 0"
	.align	3
.LC14:
	.string	"tag_len == aead_tls_tag_len(ctx, in_len, extra_in_len)"
	.section	.text.aead_tls_seal_scatter,"ax",@progbits
	.align	2
	.p2align 4,,11
	.type	aead_tls_seal_scatter, %function
aead_tls_seal_scatter:
.LVL160:
.LFB155:
	.loc 2 127 55 is_stmt 1 view -0
	.cfi_startproc
	.loc 2 127 55 is_stmt 0 view .LVU346
	stp	x29, x30, [sp, -448]!
	.cfi_def_cfa_offset 448
	.cfi_offset 29, -448
	.cfi_offset 30, -440
	mov	x29, sp
	stp	x27, x28, [sp, 80]
	.cfi_offset 27, -368
	.cfi_offset 28, -360
	.loc 2 128 17 view .LVU347
	ldr	x27, [x0, 8]
	.loc 2 127 55 view .LVU348
	stp	x19, x20, [sp, 16]
	.cfi_offset 19, -432
	.cfi_offset 20, -424
	mov	x19, x0
	str	x5, [sp, 96]
	.loc 2 128 3 is_stmt 1 view .LVU349
.LVL161:
	.loc 2 130 3 view .LVU350
	.loc 2 130 6 is_stmt 0 view .LVU351
	ldr	w0, [x27, 28]
.LVL162:
	.loc 2 130 6 view .LVU352
	cbz	w0, .L195
	stp	x23, x24, [sp, 48]
	.cfi_offset 24, -392
	.cfi_offset 23, -400
	mov	x24, x1
	.loc 2 136 3 is_stmt 1 view .LVU353
	.loc 2 136 6 is_stmt 0 view .LVU354
	mov	x0, 2147483647
	ldr	x1, [sp, 448]
.LVL163:
	.loc 2 136 6 view .LVU355
	cmp	x1, x0
	bhi	.L196
	.loc 2 142 3 is_stmt 1 view .LVU356
.LVL164:
.LBB96:
.LBI96:
	.loc 2 101 15 view .LVU357
.LBB97:
	.loc 2 103 3 view .LVU358
	ldr	x0, [sp, 464]
	stp	x21, x22, [sp, 32]
	.cfi_offset 22, -408
	.cfi_offset 21, -416
	stp	x25, x26, [sp, 64]
	.cfi_offset 26, -376
	.cfi_offset 25, -384
	.loc 2 103 3 is_stmt 0 view .LVU359
	cbnz	x0, .L197
	.loc 2 104 3 is_stmt 1 view .LVU360
.LVL165:
	.loc 2 106 3 view .LVU361
	.loc 2 106 27 is_stmt 0 view .LVU362
	add	x28, x27, 152
	mov	x23, x2
	mov	x25, x3
	mov	x20, x4
	mov	x21, x6
	mov	x22, x7
	mov	x0, x28
	bl	aws_lc_0_22_0_HMAC_size
.LVL166:
	.loc 2 106 27 view .LVU363
	mov	x26, x0
	.loc 2 107 7 view .LVU364
	mov	x0, x27
.LVL167:
	.loc 2 107 3 is_stmt 1 view .LVU365
	.loc 2 107 7 is_stmt 0 view .LVU366
	bl	aws_lc_0_22_0_EVP_CIPHER_CTX_mode
.LVL168:
	.loc 2 107 6 view .LVU367
	cmp	w0, 2
	beq	.L198
.LVL169:
	.loc 2 107 6 view .LVU368
.LBE97:
.LBE96:
	.loc 2 142 6 view .LVU369
	cmp	x20, x26
	bcc	.L199
.L126:
	.loc 2 147 3 is_stmt 1 view .LVU370
	.loc 2 147 20 is_stmt 0 view .LVU371
	ldr	x0, [x19]
	bl	aws_lc_0_22_0_EVP_AEAD_nonce_length
.LVL170:
	.loc 2 147 6 view .LVU372
	cmp	x0, x21
	bne	.L200
	.loc 2 152 3 is_stmt 1 view .LVU373
	.loc 2 152 6 is_stmt 0 view .LVU374
	ldr	x0, [sp, 480]
	cmp	x0, 11
	bne	.L201
	.loc 2 159 3 is_stmt 1 view .LVU375
	.loc 2 160 3 view .LVU376
	.loc 2 161 3 view .LVU377
	.loc 2 160 15 is_stmt 0 view .LVU378
	ldrh	w0, [sp, 448]
	.loc 2 167 8 view .LVU379
	mov	x4, 0
	mov	x3, 0
	mov	x2, 0
	.loc 2 160 15 view .LVU380
	rev16	w5, w0
	.loc 2 167 8 view .LVU381
	mov	x1, 0
	mov	x0, x28
	.loc 2 160 15 view .LVU382
	strh	w5, [sp, 112]
	.loc 2 165 3 is_stmt 1 view .LVU383
	.loc 2 166 3 view .LVU384
	.loc 2 167 3 view .LVU385
	.loc 2 167 8 is_stmt 0 view .LVU386
	bl	aws_lc_0_22_0_HMAC_Init_ex
.LVL171:
	.loc 2 167 6 view .LVU387
	cbz	w0, .L193
	.loc 2 168 8 discriminator 1 view .LVU388
	ldp	x1, x2, [sp, 472]
	mov	x0, x28
	bl	aws_lc_0_22_0_HMAC_Update
.LVL172:
	.loc 2 167 62 discriminator 1 view .LVU389
	cbnz	w0, .L202
.LVL173:
.L193:
	.loc 2 167 62 discriminator 1 view .LVU390
	ldp	x21, x22, [sp, 32]
	.cfi_restore 22
	.cfi_restore 21
	ldp	x23, x24, [sp, 48]
	.cfi_restore 24
	.cfi_restore 23
.LVL174:
	.loc 2 167 62 discriminator 1 view .LVU391
	ldp	x25, x26, [sp, 64]
	.cfi_restore 26
	.cfi_restore 25
.LVL175:
	.p2align 3,,7
.L119:
	.loc 2 133 12 view .LVU392
	mov	w0, 0
.L117:
	.loc 2 239 1 view .LVU393
	ldp	x19, x20, [sp, 16]
.LVL176:
	.loc 2 239 1 view .LVU394
	ldp	x27, x28, [sp, 80]
.LVL177:
	.loc 2 239 1 view .LVU395
	ldp	x29, x30, [sp], 448
	.cfi_restore 30
	.cfi_restore 29
	.cfi_restore 27
	.cfi_restore 28
	.cfi_restore 19
	.cfi_restore 20
	.cfi_def_cfa_offset 0
.LVL178:
	.loc 2 239 1 view .LVU396
	ret
.LVL179:
	.p2align 2,,3
.L196:
	.cfi_def_cfa_offset 448
	.cfi_offset 19, -432
	.cfi_offset 20, -424
	.cfi_offset 23, -400
	.cfi_offset 24, -392
	.cfi_offset 27, -368
	.cfi_offset 28, -360
	.cfi_offset 29, -448
	.cfi_offset 30, -440
	.loc 2 138 5 is_stmt 1 view .LVU397
	adrp	x3, .LC0
.LVL180:
	.loc 2 138 5 is_stmt 0 view .LVU398
	mov	w4, 138
.LVL181:
	.loc 2 138 5 view .LVU399
	add	x3, x3, :lo12:.LC0
	mov	w2, 117
.LVL182:
	.loc 2 138 5 view .LVU400
	mov	w1, 0
	mov	w0, 30
	bl	aws_lc_0_22_0_ERR_put_error
.LVL183:
	.loc 2 139 5 is_stmt 1 view .LVU401
	.loc 2 138 5 is_stmt 0 view .LVU402
	ldp	x23, x24, [sp, 48]
	.cfi_restore 24
	.cfi_restore 23
.LVL184:
	.loc 2 139 12 view .LVU403
	b	.L119
.LVL185:
	.p2align 2,,3
.L195:
	.loc 2 132 5 is_stmt 1 view .LVU404
	adrp	x3, .LC0
.LVL186:
	.loc 2 132 5 is_stmt 0 view .LVU405
	mov	w4, 132
.LVL187:
	.loc 2 132 5 view .LVU406
	add	x3, x3, :lo12:.LC0
	mov	w2, 112
.LVL188:
	.loc 2 132 5 view .LVU407
	mov	w1, 0
.LVL189:
	.loc 2 132 5 view .LVU408
	mov	w0, 30
	bl	aws_lc_0_22_0_ERR_put_error
.LVL190:
	.loc 2 133 5 is_stmt 1 view .LVU409
	.loc 2 133 12 is_stmt 0 view .LVU410
	b	.L119
.LVL191:
	.p2align 2,,3
.L199:
	.cfi_offset 21, -416
	.cfi_offset 22, -408
	.cfi_offset 23, -400
	.cfi_offset 24, -392
	.cfi_offset 25, -384
	.cfi_offset 26, -376
	.loc 2 143 5 is_stmt 1 view .LVU411
	adrp	x3, .LC0
	add	x3, x3, :lo12:.LC0
	mov	w4, 143
	mov	w2, 103
.L194:
	.loc 2 153 5 is_stmt 0 view .LVU412
	mov	w1, 0
	mov	w0, 30
	bl	aws_lc_0_22_0_ERR_put_error
.LVL192:
	.loc 2 154 5 is_stmt 1 view .LVU413
	.loc 2 154 12 is_stmt 0 view .LVU414
	ldp	x21, x22, [sp, 32]
	.cfi_remember_state
	.cfi_restore 22
	.cfi_restore 21
.LVL193:
	.loc 2 154 12 view .LVU415
	ldp	x23, x24, [sp, 48]
	.cfi_restore 24
	.cfi_restore 23
.LVL194:
	.loc 2 154 12 view .LVU416
	ldp	x25, x26, [sp, 64]
	.cfi_restore 26
	.cfi_restore 25
.LVL195:
	.loc 2 154 12 view .LVU417
	b	.L119
.LVL196:
	.p2align 2,,3
.L198:
	.cfi_restore_state
.LBB102:
.LBB100:
	.loc 2 112 3 is_stmt 1 view .LVU418
	.loc 2 112 29 is_stmt 0 view .LVU419
	mov	x0, x27
	bl	aws_lc_0_22_0_EVP_CIPHER_CTX_block_size
.LVL197:
	.loc 2 112 16 view .LVU420
	uxtw	x2, w0
.LVL198:
	.loc 2 115 3 is_stmt 1 view .LVU421
	cbz	w0, .L124
	sub	x0, x2, #1
	tst	x0, x2
	bne	.L124
	.loc 2 116 3 view .LVU422
.LVL199:
	.loc 2 117 3 view .LVU423
	.loc 2 116 47 is_stmt 0 view .LVU424
	ldr	x0, [sp, 448]
	.loc 2 117 19 view .LVU425
	add	x1, x26, x2
	.loc 2 116 47 view .LVU426
	add	x3, x0, x26
	.loc 2 116 59 view .LVU427
	udiv	x0, x3, x2
	msub	x0, x0, x2, x3
	.loc 2 117 19 view .LVU428
	sub	x26, x1, x0
.LVL200:
	.loc 2 117 19 view .LVU429
.LBE100:
.LBE102:
	.loc 2 142 6 view .LVU430
	cmp	x20, x26
	bcs	.L126
	b	.L199
	.p2align 2,,3
.L201:
	.loc 2 153 5 is_stmt 1 view .LVU431
	adrp	x3, .LC0
	mov	w4, 153
	add	x3, x3, :lo12:.LC0
	mov	w2, 109
	b	.L194
	.p2align 2,,3
.L200:
	.loc 2 148 5 view .LVU432
	adrp	x3, .LC0
	mov	w4, 148
	add	x3, x3, :lo12:.LC0
	mov	w2, 111
	b	.L194
	.p2align 2,,3
.L202:
	.loc 2 169 8 is_stmt 0 view .LVU433
	add	x1, sp, 112
	mov	x0, x28
	mov	x2, 2
	bl	aws_lc_0_22_0_HMAC_Update
.LVL201:
	.loc 2 168 52 view .LVU434
	cbz	w0, .L193
	.loc 2 170 8 view .LVU435
	ldr	x2, [sp, 448]
	mov	x1, x22
	mov	x0, x28
	bl	aws_lc_0_22_0_HMAC_Update
.LVL202:
	.loc 2 169 68 view .LVU436
	cbz	w0, .L193
	.loc 2 171 8 view .LVU437
	add	x20, sp, 128
.LVL203:
	.loc 2 171 8 view .LVU438
	mov	x0, x28
	mov	x1, x20
	add	x2, sp, 116
	bl	aws_lc_0_22_0_HMAC_Final
.LVL204:
	.loc 2 170 52 view .LVU439
	cbz	w0, .L193
	.loc 2 176 3 is_stmt 1 view .LVU440
	.loc 2 176 7 is_stmt 0 view .LVU441
	mov	x0, x27
	bl	aws_lc_0_22_0_EVP_CIPHER_CTX_mode
.LVL205:
	.loc 2 176 6 view .LVU442
	cmp	w0, 2
	bne	.L133
	.loc 2 176 70 discriminator 1 view .LVU443
	ldrb	w0, [x27, 889]
	cbz	w0, .L203
.L133:
	.loc 2 183 3 is_stmt 1 view .LVU444
	.loc 2 184 3 view .LVU445
	.loc 2 184 8 is_stmt 0 view .LVU446
	ldr	w4, [sp, 448]
	add	x26, sp, 120
	mov	x3, x22
	mov	x2, x26
	mov	x1, x24
	mov	x0, x27
	bl	aws_lc_0_22_0_EVP_EncryptUpdate
.LVL206:
	.loc 2 184 6 view .LVU447
	cbz	w0, .L193
	.loc 2 188 3 is_stmt 1 view .LVU448
	.loc 2 188 25 is_stmt 0 view .LVU449
	mov	x0, x27
	bl	aws_lc_0_22_0_EVP_CIPHER_CTX_block_size
.LVL207:
	uxtw	x22, w0
.LVL208:
	.loc 2 195 29 view .LVU450
	ldr	x0, [sp, 448]
	.loc 2 188 25 view .LVU451
	mov	x21, x22
.LVL209:
	.loc 2 194 3 is_stmt 1 view .LVU452
	.loc 2 195 29 is_stmt 0 view .LVU453
	ldr	x1, [sp, 448]
	udiv	x0, x0, x22
	msub	x0, x0, x22, x1
	.loc 2 195 19 view .LVU454
	sub	x0, x22, x0
	.loc 2 194 16 view .LVU455
	udiv	x28, x0, x22
	msub	x28, x28, x22, x0
.LVL210:
	.loc 2 196 3 is_stmt 1 view .LVU456
	.loc 2 196 6 is_stmt 0 view .LVU457
	cbz	x28, .L134
.LBB103:
	.loc 2 197 5 is_stmt 1 view .LVU458
	ldr	w0, [sp, 120]
	add	w0, w22, w0
	sub	x0, x0, x28
	cmp	x0, x1
	bne	.L204
	.loc 2 198 5 view .LVU459
	.loc 2 199 5 view .LVU460
	.loc 2 200 5 view .LVU461
	.loc 2 200 10 is_stmt 0 view .LVU462
	add	x5, sp, 192
	mov	w4, w28
	mov	x1, x5
	mov	x3, x20
	add	x2, sp, 124
	mov	x0, x27
	str	x5, [sp, 96]
.LVL211:
	.loc 2 200 10 view .LVU463
	bl	aws_lc_0_22_0_EVP_EncryptUpdate
.LVL212:
	.loc 2 200 8 view .LVU464
	cbz	w0, .L193
	.loc 2 204 5 is_stmt 1 view .LVU465
	ldr	w0, [sp, 124]
	ldr	x5, [sp, 96]
	cmp	w0, w22
	bne	.L205
	.loc 2 205 5 view .LVU466
.LVL213:
.LBB104:
.LBI104:
	.loc 3 934 21 view .LVU467
.LBB105:
	.loc 3 935 3 view .LVU468
	.loc 3 935 6 is_stmt 0 view .LVU469
	subs	x2, x22, x28
.LVL214:
	.loc 3 935 6 view .LVU470
	beq	.L138
	.loc 3 939 3 is_stmt 1 view .LVU471
.LBE105:
.LBE104:
	.loc 2 205 5 is_stmt 0 view .LVU472
	ldrsw	x0, [sp, 120]
.LBB107:
.LBB106:
	.loc 3 939 10 view .LVU473
	mov	x1, x5
	stp	x5, x2, [sp, 96]
.LVL215:
	.loc 3 939 10 view .LVU474
	add	x0, x24, x0
	bl	memcpy
.LVL216:
	.loc 3 939 10 view .LVU475
	ldp	x5, x2, [sp, 96]
.LVL217:
.L138:
	.loc 3 939 10 view .LVU476
.LBE106:
.LBE107:
	.loc 2 206 5 is_stmt 1 view .LVU477
.LBB108:
.LBI108:
	.loc 3 934 21 view .LVU478
.LBB109:
	.loc 3 935 3 view .LVU479
	.loc 3 939 3 view .LVU480
	.loc 3 939 10 is_stmt 0 view .LVU481
	add	x1, x5, x2
	mov	x0, x23
	mov	x2, x28
.LVL218:
	.loc 3 939 10 view .LVU482
	bl	memcpy
.LVL219:
.L134:
	.loc 3 939 10 view .LVU483
.LBE109:
.LBE108:
.LBE103:
	.loc 2 208 3 is_stmt 1 view .LVU484
	.loc 2 210 3 view .LVU485
	.loc 2 211 49 is_stmt 0 view .LVU486
	ldr	w4, [sp, 116]
	.loc 2 210 8 view .LVU487
	add	x3, x20, x28
	mov	x2, x26
	add	x1, x23, x28
	mov	x0, x27
	sub	w4, w4, w28
	bl	aws_lc_0_22_0_EVP_EncryptUpdate
.LVL220:
	.loc 2 210 6 view .LVU488
	cbz	w0, .L193
	.loc 2 214 3 is_stmt 1 view .LVU489
	.loc 2 214 11 is_stmt 0 view .LVU490
	ldrsw	x20, [sp, 120]
	add	x20, x20, x28
.LVL221:
	.loc 2 216 3 is_stmt 1 view .LVU491
	.loc 2 216 6 is_stmt 0 view .LVU492
	cmp	w21, 1
	bls	.L139
.LBB110:
	.loc 2 217 5 is_stmt 1 view .LVU493
	cmp	w21, 256
	bhi	.L206
	.loc 2 218 5 view .LVU494
	mov	x0, x27
	bl	aws_lc_0_22_0_EVP_CIPHER_CTX_mode
.LVL222:
	cmp	w0, 2
	bne	.L207
	.loc 2 221 5 view .LVU495
	.loc 2 222 5 view .LVU496
	.loc 2 222 50 is_stmt 0 view .LVU497
	ldr	x0, [sp, 448]
	add	x5, sp, 192
	ldr	w1, [sp, 116]
	add	x1, x1, x0
	.loc 2 222 61 view .LVU498
	udiv	x0, x1, x22
	msub	x0, x0, x22, x1
	.loc 2 222 14 view .LVU499
	sub	w22, w21, w0
.LVL223:
	.loc 2 223 5 is_stmt 1 view .LVU500
	sub	w2, w21, w0
.LVL224:
.LBB111:
.LBI111:
	.loc 3 950 21 view .LVU501
.LBB112:
	.loc 3 951 3 view .LVU502
	.loc 3 951 6 is_stmt 0 view .LVU503
	cbz	x2, .L142
	.loc 3 955 3 is_stmt 1 view .LVU504
	.loc 3 955 10 is_stmt 0 view .LVU505
	mov	x0, x5
	sub	w1, w22, #1
.LVL225:
	.loc 3 955 10 view .LVU506
	bl	memset
.LVL226:
	.loc 3 955 10 view .LVU507
	mov	x5, x0
.L142:
.LVL227:
	.loc 3 955 10 view .LVU508
.LBE112:
.LBE111:
	.loc 2 224 5 is_stmt 1 view .LVU509
	.loc 2 224 10 is_stmt 0 view .LVU510
	mov	w4, w22
	mov	x3, x5
	mov	x2, x26
	add	x1, x23, x20
	mov	x0, x27
	bl	aws_lc_0_22_0_EVP_EncryptUpdate
.LVL228:
	.loc 2 224 8 view .LVU511
	cbz	w0, .L193
	.loc 2 228 5 is_stmt 1 view .LVU512
	.loc 2 228 13 is_stmt 0 view .LVU513
	ldrsw	x0, [sp, 120]
	add	x20, x20, x0
.LVL229:
.L139:
	.loc 2 228 13 view .LVU514
.LBE110:
	.loc 2 231 3 is_stmt 1 view .LVU515
	.loc 2 231 8 is_stmt 0 view .LVU516
	mov	x2, x26
	add	x1, x23, x20
	mov	x0, x27
	bl	aws_lc_0_22_0_EVP_EncryptFinal_ex
.LVL230:
	.loc 2 231 6 view .LVU517
	cbz	w0, .L193
	.loc 2 234 3 is_stmt 1 view .LVU518
	ldr	w0, [sp, 120]
	cbnz	w0, .L208
	.loc 2 235 3 view .LVU519
	ldr	x1, [sp, 448]
	mov	x0, x19
	mov	x2, 0
	bl	aead_tls_tag_len
.LVL231:
	cmp	x0, x20
	bne	.L209
	.loc 2 237 3 view .LVU520
	.loc 2 237 16 is_stmt 0 view .LVU521
	ldp	x21, x22, [sp, 32]
	.cfi_remember_state
	.cfi_restore 22
	.cfi_restore 21
.LVL232:
	.loc 2 238 10 view .LVU522
	mov	w0, 1
	.loc 2 237 16 view .LVU523
	ldp	x23, x24, [sp, 48]
	.cfi_restore 24
	.cfi_restore 23
.LVL233:
	.loc 2 237 16 view .LVU524
	str	x20, [x25]
	.loc 2 238 3 is_stmt 1 view .LVU525
	.loc 2 237 16 is_stmt 0 view .LVU526
	ldp	x25, x26, [sp, 64]
	.cfi_restore 26
	.cfi_restore 25
.LVL234:
	.loc 2 238 10 view .LVU527
	b	.L117
.LVL235:
.L203:
	.cfi_restore_state
	.loc 2 178 8 view .LVU528
	ldr	x4, [sp, 96]
	mov	x0, x27
	mov	x3, 0
	mov	x2, 0
	mov	x1, 0
	bl	aws_lc_0_22_0_EVP_EncryptInit_ex
.LVL236:
	.loc 2 177 29 view .LVU529
	cbnz	w0, .L133
	b	.L193
.LVL237:
.L197:
.LBB113:
.LBB101:
	.loc 2 103 3 view .LVU530
	adrp	x3, __PRETTY_FUNCTION__.3
.LVL238:
	.loc 2 103 3 view .LVU531
	adrp	x1, .LC0
.LVL239:
	.loc 2 103 3 view .LVU532
	adrp	x0, .LC5
.LVL240:
	.loc 2 103 3 view .LVU533
	add	x3, x3, :lo12:__PRETTY_FUNCTION__.3
	add	x1, x1, :lo12:.LC0
	add	x0, x0, :lo12:.LC5
	mov	w2, 103
.LVL241:
	.loc 2 103 3 view .LVU534
	bl	__assert_fail
.LVL242:
.L124:
.LBB98:
.LBI98:
	.loc 2 101 15 is_stmt 1 view .LVU535
.LBB99:
	.loc 2 115 3 is_stmt 0 view .LVU536
	adrp	x3, __PRETTY_FUNCTION__.3
	adrp	x1, .LC0
	adrp	x0, .LC6
	add	x3, x3, :lo12:__PRETTY_FUNCTION__.3
	add	x1, x1, :lo12:.LC0
	add	x0, x0, :lo12:.LC6
	mov	w2, 115
.LVL243:
	.loc 2 115 3 view .LVU537
	bl	__assert_fail
.LVL244:
.L205:
	.loc 2 115 3 view .LVU538
.LBE99:
.LBE98:
.LBE101:
.LBE113:
.LBB114:
	.loc 2 204 5 discriminator 1 view .LVU539
	adrp	x3, __PRETTY_FUNCTION__.2
	adrp	x1, .LC0
	adrp	x0, .LC10
	add	x3, x3, :lo12:__PRETTY_FUNCTION__.2
	add	x1, x1, :lo12:.LC0
	add	x0, x0, :lo12:.LC10
	mov	w2, 204
	bl	__assert_fail
.LVL245:
.L204:
	.loc 2 197 5 discriminator 1 view .LVU540
	adrp	x3, __PRETTY_FUNCTION__.2
	adrp	x1, .LC0
	adrp	x0, .LC9
	add	x3, x3, :lo12:__PRETTY_FUNCTION__.2
	add	x1, x1, :lo12:.LC0
	add	x0, x0, :lo12:.LC9
	mov	w2, 197
	bl	__assert_fail
.LVL246:
.L209:
	.loc 2 197 5 discriminator 1 view .LVU541
.LBE114:
	.loc 2 235 3 discriminator 1 view .LVU542
	adrp	x3, __PRETTY_FUNCTION__.2
	adrp	x1, .LC0
	adrp	x0, .LC14
	add	x3, x3, :lo12:__PRETTY_FUNCTION__.2
	add	x1, x1, :lo12:.LC0
	add	x0, x0, :lo12:.LC14
	mov	w2, 235
	bl	__assert_fail
.LVL247:
.L208:
	.loc 2 234 3 discriminator 1 view .LVU543
	adrp	x3, __PRETTY_FUNCTION__.2
	adrp	x1, .LC0
	adrp	x0, .LC13
	add	x3, x3, :lo12:__PRETTY_FUNCTION__.2
	add	x1, x1, :lo12:.LC0
	add	x0, x0, :lo12:.LC13
	mov	w2, 234
	bl	__assert_fail
.LVL248:
.L207:
.LBB115:
	.loc 2 218 5 discriminator 1 view .LVU544
	adrp	x3, __PRETTY_FUNCTION__.2
	adrp	x1, .LC0
	adrp	x0, .LC12
	add	x3, x3, :lo12:__PRETTY_FUNCTION__.2
	add	x1, x1, :lo12:.LC0
	add	x0, x0, :lo12:.LC12
	mov	w2, 218
	bl	__assert_fail
.LVL249:
.L206:
	.loc 2 217 5 discriminator 1 view .LVU545
	adrp	x3, __PRETTY_FUNCTION__.2
	adrp	x1, .LC0
	adrp	x0, .LC11
	add	x3, x3, :lo12:__PRETTY_FUNCTION__.2
	add	x1, x1, :lo12:.LC0
	add	x0, x0, :lo12:.LC11
	mov	w2, 217
	bl	__assert_fail
.LVL250:
.LBE115:
	.cfi_endproc
.LFE155:
	.size	aead_tls_seal_scatter, .-aead_tls_seal_scatter
	.section	.text.aead_des_ede3_cbc_sha1_tls_init,"ax",@progbits
	.align	2
	.p2align 4,,11
	.type	aead_des_ede3_cbc_sha1_tls_init, %function
aead_des_ede3_cbc_sha1_tls_init:
.LVL251:
.LFB164:
	.loc 2 448 75 is_stmt 1 view -0
	.cfi_startproc
	.loc 2 449 3 view .LVU547
	.loc 2 448 75 is_stmt 0 view .LVU548
	stp	x29, x30, [sp, -80]!
	.cfi_def_cfa_offset 80
	.cfi_offset 29, -80
	.cfi_offset 30, -72
	mov	x29, sp
	stp	x19, x20, [sp, 16]
	.cfi_offset 19, -64
	.cfi_offset 20, -56
	mov	x20, x3
	mov	x19, x0
	stp	x21, x22, [sp, 32]
	.cfi_offset 21, -48
	.cfi_offset 22, -40
	mov	x22, x1
	mov	x21, x2
	stp	x23, x24, [sp, 48]
	.cfi_offset 23, -32
	.cfi_offset 24, -24
	mov	w24, w4
	stp	x25, x26, [sp, 64]
	.cfi_offset 25, -16
	.cfi_offset 26, -8
	.loc 2 449 10 view .LVU549
	bl	aws_lc_0_22_0_EVP_des_ede3_cbc
.LVL252:
	.loc 2 449 10 view .LVU550
	mov	x23, x0
	bl	aws_lc_0_22_0_EVP_sha1
.LVL253:
	mov	x25, x0
.LVL254:
.LBB122:
.LBI122:
	.loc 2 56 12 is_stmt 1 view .LVU551
.LBB123:
	.loc 2 60 3 view .LVU552
	.loc 2 60 6 is_stmt 0 view .LVU553
	cbz	x20, .L211
	.loc 2 60 60 view .LVU554
	bl	aws_lc_0_22_0_EVP_MD_size
.LVL255:
	.loc 2 60 46 view .LVU555
	cmp	x20, x0
	bne	.L233
.L211:
	.loc 2 65 3 is_stmt 1 view .LVU556
	.loc 2 65 18 is_stmt 0 view .LVU557
	ldr	x0, [x19]
	bl	aws_lc_0_22_0_EVP_AEAD_key_length
.LVL256:
	.loc 2 65 6 view .LVU558
	cmp	x21, x0
	bne	.L234
	.loc 2 70 3 is_stmt 1 view .LVU559
	.loc 2 70 24 is_stmt 0 view .LVU560
	mov	x0, x25
	bl	aws_lc_0_22_0_EVP_MD_size
.LVL257:
	mov	x26, x0
	.loc 2 71 24 view .LVU561
	mov	x0, x23
.LVL258:
	.loc 2 71 3 is_stmt 1 view .LVU562
	.loc 2 71 24 is_stmt 0 view .LVU563
	bl	aws_lc_0_22_0_EVP_CIPHER_key_length
.LVL259:
	.loc 2 72 3 is_stmt 1 view .LVU564
	add	x0, x26, w0, uxtw
.LVL260:
	.loc 2 72 3 is_stmt 0 view .LVU565
	cmp	x21, x0
	bne	.L235
	.loc 2 76 3 is_stmt 1 view .LVU566
	.loc 2 76 27 is_stmt 0 view .LVU567
	mov	x0, 896
	bl	aws_lc_0_22_0_OPENSSL_malloc
.LVL261:
	mov	x20, x0
.LVL262:
	.loc 2 77 3 is_stmt 1 view .LVU568
	.loc 2 77 6 is_stmt 0 view .LVU569
	cbz	x0, .L212
	.loc 2 80 3 is_stmt 1 view .LVU570
	.loc 2 80 18 is_stmt 0 view .LVU571
	str	x0, [x19, 8]
	.loc 2 82 3 is_stmt 1 view .LVU572
	.loc 2 83 3 is_stmt 0 view .LVU573
	add	x21, x0, 152
.LVL263:
	.loc 2 82 3 view .LVU574
	bl	aws_lc_0_22_0_EVP_CIPHER_CTX_init
.LVL264:
	.loc 2 83 3 is_stmt 1 view .LVU575
	mov	x0, x21
	bl	aws_lc_0_22_0_HMAC_CTX_init
.LVL265:
	.loc 2 84 3 view .LVU576
	cmp	x26, 64
	bhi	.L236
	.loc 2 85 3 view .LVU577
.LVL266:
.LBB124:
.LBI124:
	.loc 3 934 21 view .LVU578
.LBB125:
	.loc 3 935 3 view .LVU579
	.loc 3 935 6 is_stmt 0 view .LVU580
	cbnz	x26, .L237
.L217:
.LVL267:
	.loc 3 935 6 view .LVU581
.LBE125:
.LBE124:
	.loc 2 86 3 is_stmt 1 view .LVU582
	.loc 2 89 8 is_stmt 0 view .LVU583
	cmp	w24, 1
	.loc 2 86 26 view .LVU584
	strb	w26, [x20, 888]
	.loc 2 87 3 is_stmt 1 view .LVU585
	.loc 2 87 24 is_stmt 0 view .LVU586
	strb	wzr, [x20, 889]
	.loc 2 89 3 is_stmt 1 view .LVU587
	.loc 2 89 8 is_stmt 0 view .LVU588
	mov	x1, x23
	cset	w5, eq
	add	x3, x22, x26
	mov	x0, x20
	mov	x4, 0
	mov	x2, 0
	bl	aws_lc_0_22_0_EVP_CipherInit_ex
.LVL268:
	.loc 2 89 6 view .LVU589
	cbz	w0, .L219
	.loc 2 92 8 view .LVU590
	mov	x3, x25
	mov	x2, x26
	mov	x1, x22
	mov	x0, x21
	mov	x4, 0
	bl	aws_lc_0_22_0_HMAC_Init_ex
.LVL269:
	.loc 2 91 48 view .LVU591
	cbz	w0, .L219
	.loc 2 96 3 is_stmt 1 view .LVU592
	mov	x0, x20
	mov	w1, 0
	bl	aws_lc_0_22_0_EVP_CIPHER_CTX_set_padding
.LVL270:
	.loc 2 98 3 view .LVU593
	.loc 2 98 10 is_stmt 0 view .LVU594
	mov	w0, 1
.LVL271:
	.loc 2 98 10 view .LVU595
.LBE123:
.LBE122:
	.loc 2 449 10 view .LVU596
	b	.L210
.LVL272:
	.p2align 2,,3
.L234:
.LBB132:
.LBB130:
	.loc 2 66 5 is_stmt 1 view .LVU597
	adrp	x3, .LC0
	mov	w4, 66
	add	x3, x3, :lo12:.LC0
	mov	w2, 102
	mov	w1, 0
	mov	w0, 30
	bl	aws_lc_0_22_0_ERR_put_error
.LVL273:
	.loc 2 67 5 view .LVU598
.L212:
	.loc 2 62 12 is_stmt 0 view .LVU599
	mov	w0, 0
.LVL274:
.L210:
	.loc 2 62 12 view .LVU600
.LBE130:
.LBE132:
	.loc 2 451 1 view .LVU601
	ldp	x19, x20, [sp, 16]
.LVL275:
	.loc 2 451 1 view .LVU602
	ldp	x21, x22, [sp, 32]
.LVL276:
	.loc 2 451 1 view .LVU603
	ldp	x23, x24, [sp, 48]
.LVL277:
	.loc 2 451 1 view .LVU604
	ldp	x25, x26, [sp, 64]
	ldp	x29, x30, [sp], 80
	.cfi_remember_state
	.cfi_restore 30
	.cfi_restore 29
	.cfi_restore 25
	.cfi_restore 26
	.cfi_restore 23
	.cfi_restore 24
	.cfi_restore 21
	.cfi_restore 22
	.cfi_restore 19
	.cfi_restore 20
	.cfi_def_cfa_offset 0
	ret
.LVL278:
	.p2align 2,,3
.L233:
	.cfi_restore_state
.LBB133:
.LBB131:
	.loc 2 61 5 is_stmt 1 view .LVU605
	adrp	x3, .LC0
	mov	w4, 61
	add	x3, x3, :lo12:.LC0
	mov	w2, 122
	mov	w1, 0
	mov	w0, 30
	bl	aws_lc_0_22_0_ERR_put_error
.LVL279:
	.loc 2 62 5 view .LVU606
	.loc 2 62 12 is_stmt 0 view .LVU607
	b	.L212
.LVL280:
	.p2align 2,,3
.L237:
.LBB127:
.LBB126:
	.loc 3 939 3 is_stmt 1 view .LVU608
	.loc 3 939 10 is_stmt 0 view .LVU609
	mov	x2, x26
	mov	x1, x22
	add	x0, x20, 824
	bl	memcpy
.LVL281:
	b	.L217
.LVL282:
	.p2align 2,,3
.L219:
	.loc 3 939 10 view .LVU610
.LBE126:
.LBE127:
	.loc 2 93 5 is_stmt 1 view .LVU611
.LBB128:
.LBI128:
	.loc 2 48 13 view .LVU612
.LBB129:
	.loc 2 49 3 view .LVU613
	.loc 2 49 17 is_stmt 0 view .LVU614
	ldr	x20, [x19, 8]
.LVL283:
	.loc 2 50 3 is_stmt 1 view .LVU615
	mov	x0, x20
	bl	aws_lc_0_22_0_EVP_CIPHER_CTX_cleanup
.LVL284:
	.loc 2 51 3 view .LVU616
	add	x0, x20, 152
	bl	aws_lc_0_22_0_HMAC_CTX_cleanup
.LVL285:
	.loc 2 52 3 view .LVU617
	mov	x0, x20
	bl	aws_lc_0_22_0_OPENSSL_free
.LVL286:
	.loc 2 53 3 view .LVU618
	.loc 2 53 18 is_stmt 0 view .LVU619
	str	xzr, [x19, 8]
	.loc 2 54 1 view .LVU620
	b	.L212
.LVL287:
.L235:
	.loc 2 54 1 view .LVU621
.LBE129:
.LBE128:
	.loc 2 72 3 view .LVU622
	adrp	x3, __PRETTY_FUNCTION__.0
	adrp	x1, .LC0
	adrp	x0, .LC7
	add	x3, x3, :lo12:__PRETTY_FUNCTION__.0
	add	x1, x1, :lo12:.LC0
	add	x0, x0, :lo12:.LC7
	mov	w2, 72
	bl	__assert_fail
.LVL288:
.L236:
	.loc 2 84 3 view .LVU623
	adrp	x3, __PRETTY_FUNCTION__.0
	adrp	x1, .LC0
	adrp	x0, .LC8
	add	x3, x3, :lo12:__PRETTY_FUNCTION__.0
	add	x1, x1, :lo12:.LC0
	add	x0, x0, :lo12:.LC8
	mov	w2, 84
	bl	__assert_fail
.LVL289:
.LBE131:
.LBE133:
	.cfi_endproc
.LFE164:
	.size	aead_des_ede3_cbc_sha1_tls_init, .-aead_des_ede3_cbc_sha1_tls_init
	.section	.text.aead_aes_128_cbc_sha1_tls_init,"ax",@progbits
	.align	2
	.p2align 4,,11
	.type	aead_aes_128_cbc_sha1_tls_init, %function
aead_aes_128_cbc_sha1_tls_init:
.LVL290:
.LFB157:
	.loc 2 396 74 is_stmt 1 view -0
	.cfi_startproc
	.loc 2 397 3 view .LVU625
	.loc 2 396 74 is_stmt 0 view .LVU626
	stp	x29, x30, [sp, -80]!
	.cfi_def_cfa_offset 80
	.cfi_offset 29, -80
	.cfi_offset 30, -72
	mov	x29, sp
	stp	x19, x20, [sp, 16]
	.cfi_offset 19, -64
	.cfi_offset 20, -56
	mov	x20, x3
	mov	x19, x0
	stp	x21, x22, [sp, 32]
	.cfi_offset 21, -48
	.cfi_offset 22, -40
	mov	x22, x1
	mov	x21, x2
	stp	x23, x24, [sp, 48]
	.cfi_offset 23, -32
	.cfi_offset 24, -24
	mov	w24, w4
	stp	x25, x26, [sp, 64]
	.cfi_offset 25, -16
	.cfi_offset 26, -8
	.loc 2 397 10 view .LVU627
	bl	aws_lc_0_22_0_EVP_aes_128_cbc
.LVL291:
	.loc 2 397 10 view .LVU628
	mov	x23, x0
	bl	aws_lc_0_22_0_EVP_sha1
.LVL292:
	mov	x25, x0
.LVL293:
.LBB140:
.LBI140:
	.loc 2 56 12 is_stmt 1 view .LVU629
.LBB141:
	.loc 2 60 3 view .LVU630
	.loc 2 60 6 is_stmt 0 view .LVU631
	cbz	x20, .L239
	.loc 2 60 60 view .LVU632
	bl	aws_lc_0_22_0_EVP_MD_size
.LVL294:
	.loc 2 60 46 view .LVU633
	cmp	x20, x0
	bne	.L261
.L239:
	.loc 2 65 3 is_stmt 1 view .LVU634
	.loc 2 65 18 is_stmt 0 view .LVU635
	ldr	x0, [x19]
	bl	aws_lc_0_22_0_EVP_AEAD_key_length
.LVL295:
	.loc 2 65 6 view .LVU636
	cmp	x21, x0
	bne	.L262
	.loc 2 70 3 is_stmt 1 view .LVU637
	.loc 2 70 24 is_stmt 0 view .LVU638
	mov	x0, x25
	bl	aws_lc_0_22_0_EVP_MD_size
.LVL296:
	mov	x26, x0
	.loc 2 71 24 view .LVU639
	mov	x0, x23
.LVL297:
	.loc 2 71 3 is_stmt 1 view .LVU640
	.loc 2 71 24 is_stmt 0 view .LVU641
	bl	aws_lc_0_22_0_EVP_CIPHER_key_length
.LVL298:
	.loc 2 72 3 is_stmt 1 view .LVU642
	add	x0, x26, w0, uxtw
.LVL299:
	.loc 2 72 3 is_stmt 0 view .LVU643
	cmp	x21, x0
	bne	.L263
	.loc 2 76 3 is_stmt 1 view .LVU644
	.loc 2 76 27 is_stmt 0 view .LVU645
	mov	x0, 896
	bl	aws_lc_0_22_0_OPENSSL_malloc
.LVL300:
	mov	x20, x0
.LVL301:
	.loc 2 77 3 is_stmt 1 view .LVU646
	.loc 2 77 6 is_stmt 0 view .LVU647
	cbz	x0, .L240
	.loc 2 80 3 is_stmt 1 view .LVU648
	.loc 2 80 18 is_stmt 0 view .LVU649
	str	x0, [x19, 8]
	.loc 2 82 3 is_stmt 1 view .LVU650
	.loc 2 83 3 is_stmt 0 view .LVU651
	add	x21, x0, 152
.LVL302:
	.loc 2 82 3 view .LVU652
	bl	aws_lc_0_22_0_EVP_CIPHER_CTX_init
.LVL303:
	.loc 2 83 3 is_stmt 1 view .LVU653
	mov	x0, x21
	bl	aws_lc_0_22_0_HMAC_CTX_init
.LVL304:
	.loc 2 84 3 view .LVU654
	cmp	x26, 64
	bhi	.L264
	.loc 2 85 3 view .LVU655
.LVL305:
.LBB142:
.LBI142:
	.loc 3 934 21 view .LVU656
.LBB143:
	.loc 3 935 3 view .LVU657
	.loc 3 935 6 is_stmt 0 view .LVU658
	cbnz	x26, .L265
.L245:
.LVL306:
	.loc 3 935 6 view .LVU659
.LBE143:
.LBE142:
	.loc 2 86 3 is_stmt 1 view .LVU660
	.loc 2 89 8 is_stmt 0 view .LVU661
	cmp	w24, 1
	.loc 2 86 26 view .LVU662
	strb	w26, [x20, 888]
	.loc 2 87 3 is_stmt 1 view .LVU663
	.loc 2 87 24 is_stmt 0 view .LVU664
	strb	wzr, [x20, 889]
	.loc 2 89 3 is_stmt 1 view .LVU665
	.loc 2 89 8 is_stmt 0 view .LVU666
	mov	x1, x23
	cset	w5, eq
	add	x3, x22, x26
	mov	x0, x20
	mov	x4, 0
	mov	x2, 0
	bl	aws_lc_0_22_0_EVP_CipherInit_ex
.LVL307:
	.loc 2 89 6 view .LVU667
	cbz	w0, .L247
	.loc 2 92 8 view .LVU668
	mov	x3, x25
	mov	x2, x26
	mov	x1, x22
	mov	x0, x21
	mov	x4, 0
	bl	aws_lc_0_22_0_HMAC_Init_ex
.LVL308:
	.loc 2 91 48 view .LVU669
	cbz	w0, .L247
	.loc 2 96 3 is_stmt 1 view .LVU670
	mov	x0, x20
	mov	w1, 0
	bl	aws_lc_0_22_0_EVP_CIPHER_CTX_set_padding
.LVL309:
	.loc 2 98 3 view .LVU671
	.loc 2 98 10 is_stmt 0 view .LVU672
	mov	w0, 1
.LVL310:
	.loc 2 98 10 view .LVU673
.LBE141:
.LBE140:
	.loc 2 397 10 view .LVU674
	b	.L238
.LVL311:
	.p2align 2,,3
.L262:
.LBB150:
.LBB148:
	.loc 2 66 5 is_stmt 1 view .LVU675
	adrp	x3, .LC0
	mov	w4, 66
	add	x3, x3, :lo12:.LC0
	mov	w2, 102
	mov	w1, 0
	mov	w0, 30
	bl	aws_lc_0_22_0_ERR_put_error
.LVL312:
	.loc 2 67 5 view .LVU676
.L240:
	.loc 2 62 12 is_stmt 0 view .LVU677
	mov	w0, 0
.LVL313:
.L238:
	.loc 2 62 12 view .LVU678
.LBE148:
.LBE150:
	.loc 2 399 1 view .LVU679
	ldp	x19, x20, [sp, 16]
.LVL314:
	.loc 2 399 1 view .LVU680
	ldp	x21, x22, [sp, 32]
.LVL315:
	.loc 2 399 1 view .LVU681
	ldp	x23, x24, [sp, 48]
.LVL316:
	.loc 2 399 1 view .LVU682
	ldp	x25, x26, [sp, 64]
	ldp	x29, x30, [sp], 80
	.cfi_remember_state
	.cfi_restore 30
	.cfi_restore 29
	.cfi_restore 25
	.cfi_restore 26
	.cfi_restore 23
	.cfi_restore 24
	.cfi_restore 21
	.cfi_restore 22
	.cfi_restore 19
	.cfi_restore 20
	.cfi_def_cfa_offset 0
	ret
.LVL317:
	.p2align 2,,3
.L261:
	.cfi_restore_state
.LBB151:
.LBB149:
	.loc 2 61 5 is_stmt 1 view .LVU683
	adrp	x3, .LC0
	mov	w4, 61
	add	x3, x3, :lo12:.LC0
	mov	w2, 122
	mov	w1, 0
	mov	w0, 30
	bl	aws_lc_0_22_0_ERR_put_error
.LVL318:
	.loc 2 62 5 view .LVU684
	.loc 2 62 12 is_stmt 0 view .LVU685
	b	.L240
.LVL319:
	.p2align 2,,3
.L265:
.LBB145:
.LBB144:
	.loc 3 939 3 is_stmt 1 view .LVU686
	.loc 3 939 10 is_stmt 0 view .LVU687
	mov	x2, x26
	mov	x1, x22
	add	x0, x20, 824
	bl	memcpy
.LVL320:
	b	.L245
.LVL321:
	.p2align 2,,3
.L247:
	.loc 3 939 10 view .LVU688
.LBE144:
.LBE145:
	.loc 2 93 5 is_stmt 1 view .LVU689
.LBB146:
.LBI146:
	.loc 2 48 13 view .LVU690
.LBB147:
	.loc 2 49 3 view .LVU691
	.loc 2 49 17 is_stmt 0 view .LVU692
	ldr	x20, [x19, 8]
.LVL322:
	.loc 2 50 3 is_stmt 1 view .LVU693
	mov	x0, x20
	bl	aws_lc_0_22_0_EVP_CIPHER_CTX_cleanup
.LVL323:
	.loc 2 51 3 view .LVU694
	add	x0, x20, 152
	bl	aws_lc_0_22_0_HMAC_CTX_cleanup
.LVL324:
	.loc 2 52 3 view .LVU695
	mov	x0, x20
	bl	aws_lc_0_22_0_OPENSSL_free
.LVL325:
	.loc 2 53 3 view .LVU696
	.loc 2 53 18 is_stmt 0 view .LVU697
	str	xzr, [x19, 8]
	.loc 2 54 1 view .LVU698
	b	.L240
.LVL326:
.L263:
	.loc 2 54 1 view .LVU699
.LBE147:
.LBE146:
	.loc 2 72 3 view .LVU700
	adrp	x3, __PRETTY_FUNCTION__.0
	adrp	x1, .LC0
	adrp	x0, .LC7
	add	x3, x3, :lo12:__PRETTY_FUNCTION__.0
	add	x1, x1, :lo12:.LC0
	add	x0, x0, :lo12:.LC7
	mov	w2, 72
	bl	__assert_fail
.LVL327:
.L264:
	.loc 2 84 3 view .LVU701
	adrp	x3, __PRETTY_FUNCTION__.0
	adrp	x1, .LC0
	adrp	x0, .LC8
	add	x3, x3, :lo12:__PRETTY_FUNCTION__.0
	add	x1, x1, :lo12:.LC0
	add	x0, x0, :lo12:.LC8
	mov	w2, 84
	bl	__assert_fail
.LVL328:
.LBE149:
.LBE151:
	.cfi_endproc
.LFE157:
	.size	aead_aes_128_cbc_sha1_tls_init, .-aead_aes_128_cbc_sha1_tls_init
	.section	.text.aead_aes_256_cbc_sha384_tls_init,"ax",@progbits
	.align	2
	.p2align 4,,11
	.type	aead_aes_256_cbc_sha384_tls_init, %function
aead_aes_256_cbc_sha384_tls_init:
.LVL329:
.LFB163:
	.loc 2 440 76 is_stmt 1 view -0
	.cfi_startproc
	.loc 2 441 3 view .LVU703
	.loc 2 440 76 is_stmt 0 view .LVU704
	stp	x29, x30, [sp, -80]!
	.cfi_def_cfa_offset 80
	.cfi_offset 29, -80
	.cfi_offset 30, -72
	mov	x29, sp
	stp	x19, x20, [sp, 16]
	.cfi_offset 19, -64
	.cfi_offset 20, -56
	mov	x20, x3
	mov	x19, x0
	stp	x21, x22, [sp, 32]
	.cfi_offset 21, -48
	.cfi_offset 22, -40
	mov	x22, x1
	mov	x21, x2
	stp	x23, x24, [sp, 48]
	.cfi_offset 23, -32
	.cfi_offset 24, -24
	mov	w24, w4
	stp	x25, x26, [sp, 64]
	.cfi_offset 25, -16
	.cfi_offset 26, -8
	.loc 2 441 10 view .LVU705
	bl	aws_lc_0_22_0_EVP_aes_256_cbc
.LVL330:
	.loc 2 441 10 view .LVU706
	mov	x23, x0
	bl	aws_lc_0_22_0_EVP_sha384
.LVL331:
	mov	x25, x0
.LVL332:
.LBB158:
.LBI158:
	.loc 2 56 12 is_stmt 1 view .LVU707
.LBB159:
	.loc 2 60 3 view .LVU708
	.loc 2 60 6 is_stmt 0 view .LVU709
	cbz	x20, .L267
	.loc 2 60 60 view .LVU710
	bl	aws_lc_0_22_0_EVP_MD_size
.LVL333:
	.loc 2 60 46 view .LVU711
	cmp	x20, x0
	bne	.L289
.L267:
	.loc 2 65 3 is_stmt 1 view .LVU712
	.loc 2 65 18 is_stmt 0 view .LVU713
	ldr	x0, [x19]
	bl	aws_lc_0_22_0_EVP_AEAD_key_length
.LVL334:
	.loc 2 65 6 view .LVU714
	cmp	x21, x0
	bne	.L290
	.loc 2 70 3 is_stmt 1 view .LVU715
	.loc 2 70 24 is_stmt 0 view .LVU716
	mov	x0, x25
	bl	aws_lc_0_22_0_EVP_MD_size
.LVL335:
	mov	x26, x0
	.loc 2 71 24 view .LVU717
	mov	x0, x23
.LVL336:
	.loc 2 71 3 is_stmt 1 view .LVU718
	.loc 2 71 24 is_stmt 0 view .LVU719
	bl	aws_lc_0_22_0_EVP_CIPHER_key_length
.LVL337:
	.loc 2 72 3 is_stmt 1 view .LVU720
	add	x0, x26, w0, uxtw
.LVL338:
	.loc 2 72 3 is_stmt 0 view .LVU721
	cmp	x21, x0
	bne	.L291
	.loc 2 76 3 is_stmt 1 view .LVU722
	.loc 2 76 27 is_stmt 0 view .LVU723
	mov	x0, 896
	bl	aws_lc_0_22_0_OPENSSL_malloc
.LVL339:
	mov	x20, x0
.LVL340:
	.loc 2 77 3 is_stmt 1 view .LVU724
	.loc 2 77 6 is_stmt 0 view .LVU725
	cbz	x0, .L268
	.loc 2 80 3 is_stmt 1 view .LVU726
	.loc 2 80 18 is_stmt 0 view .LVU727
	str	x0, [x19, 8]
	.loc 2 82 3 is_stmt 1 view .LVU728
	.loc 2 83 3 is_stmt 0 view .LVU729
	add	x21, x0, 152
.LVL341:
	.loc 2 82 3 view .LVU730
	bl	aws_lc_0_22_0_EVP_CIPHER_CTX_init
.LVL342:
	.loc 2 83 3 is_stmt 1 view .LVU731
	mov	x0, x21
	bl	aws_lc_0_22_0_HMAC_CTX_init
.LVL343:
	.loc 2 84 3 view .LVU732
	cmp	x26, 64
	bhi	.L292
	.loc 2 85 3 view .LVU733
.LVL344:
.LBB160:
.LBI160:
	.loc 3 934 21 view .LVU734
.LBB161:
	.loc 3 935 3 view .LVU735
	.loc 3 935 6 is_stmt 0 view .LVU736
	cbnz	x26, .L293
.L273:
.LVL345:
	.loc 3 935 6 view .LVU737
.LBE161:
.LBE160:
	.loc 2 86 3 is_stmt 1 view .LVU738
	.loc 2 89 8 is_stmt 0 view .LVU739
	cmp	w24, 1
	.loc 2 86 26 view .LVU740
	strb	w26, [x20, 888]
	.loc 2 87 3 is_stmt 1 view .LVU741
	.loc 2 87 24 is_stmt 0 view .LVU742
	strb	wzr, [x20, 889]
	.loc 2 89 3 is_stmt 1 view .LVU743
	.loc 2 89 8 is_stmt 0 view .LVU744
	mov	x1, x23
	cset	w5, eq
	add	x3, x22, x26
	mov	x0, x20
	mov	x4, 0
	mov	x2, 0
	bl	aws_lc_0_22_0_EVP_CipherInit_ex
.LVL346:
	.loc 2 89 6 view .LVU745
	cbz	w0, .L275
	.loc 2 92 8 view .LVU746
	mov	x3, x25
	mov	x2, x26
	mov	x1, x22
	mov	x0, x21
	mov	x4, 0
	bl	aws_lc_0_22_0_HMAC_Init_ex
.LVL347:
	.loc 2 91 48 view .LVU747
	cbz	w0, .L275
	.loc 2 96 3 is_stmt 1 view .LVU748
	mov	x0, x20
	mov	w1, 0
	bl	aws_lc_0_22_0_EVP_CIPHER_CTX_set_padding
.LVL348:
	.loc 2 98 3 view .LVU749
	.loc 2 98 10 is_stmt 0 view .LVU750
	mov	w0, 1
.LVL349:
	.loc 2 98 10 view .LVU751
.LBE159:
.LBE158:
	.loc 2 441 10 view .LVU752
	b	.L266
.LVL350:
	.p2align 2,,3
.L290:
.LBB168:
.LBB166:
	.loc 2 66 5 is_stmt 1 view .LVU753
	adrp	x3, .LC0
	mov	w4, 66
	add	x3, x3, :lo12:.LC0
	mov	w2, 102
	mov	w1, 0
	mov	w0, 30
	bl	aws_lc_0_22_0_ERR_put_error
.LVL351:
	.loc 2 67 5 view .LVU754
.L268:
	.loc 2 62 12 is_stmt 0 view .LVU755
	mov	w0, 0
.LVL352:
.L266:
	.loc 2 62 12 view .LVU756
.LBE166:
.LBE168:
	.loc 2 443 1 view .LVU757
	ldp	x19, x20, [sp, 16]
.LVL353:
	.loc 2 443 1 view .LVU758
	ldp	x21, x22, [sp, 32]
.LVL354:
	.loc 2 443 1 view .LVU759
	ldp	x23, x24, [sp, 48]
.LVL355:
	.loc 2 443 1 view .LVU760
	ldp	x25, x26, [sp, 64]
	ldp	x29, x30, [sp], 80
	.cfi_remember_state
	.cfi_restore 30
	.cfi_restore 29
	.cfi_restore 25
	.cfi_restore 26
	.cfi_restore 23
	.cfi_restore 24
	.cfi_restore 21
	.cfi_restore 22
	.cfi_restore 19
	.cfi_restore 20
	.cfi_def_cfa_offset 0
	ret
.LVL356:
	.p2align 2,,3
.L289:
	.cfi_restore_state
.LBB169:
.LBB167:
	.loc 2 61 5 is_stmt 1 view .LVU761
	adrp	x3, .LC0
	mov	w4, 61
	add	x3, x3, :lo12:.LC0
	mov	w2, 122
	mov	w1, 0
	mov	w0, 30
	bl	aws_lc_0_22_0_ERR_put_error
.LVL357:
	.loc 2 62 5 view .LVU762
	.loc 2 62 12 is_stmt 0 view .LVU763
	b	.L268
.LVL358:
	.p2align 2,,3
.L293:
.LBB163:
.LBB162:
	.loc 3 939 3 is_stmt 1 view .LVU764
	.loc 3 939 10 is_stmt 0 view .LVU765
	mov	x2, x26
	mov	x1, x22
	add	x0, x20, 824
	bl	memcpy
.LVL359:
	b	.L273
.LVL360:
	.p2align 2,,3
.L275:
	.loc 3 939 10 view .LVU766
.LBE162:
.LBE163:
	.loc 2 93 5 is_stmt 1 view .LVU767
.LBB164:
.LBI164:
	.loc 2 48 13 view .LVU768
.LBB165:
	.loc 2 49 3 view .LVU769
	.loc 2 49 17 is_stmt 0 view .LVU770
	ldr	x20, [x19, 8]
.LVL361:
	.loc 2 50 3 is_stmt 1 view .LVU771
	mov	x0, x20
	bl	aws_lc_0_22_0_EVP_CIPHER_CTX_cleanup
.LVL362:
	.loc 2 51 3 view .LVU772
	add	x0, x20, 152
	bl	aws_lc_0_22_0_HMAC_CTX_cleanup
.LVL363:
	.loc 2 52 3 view .LVU773
	mov	x0, x20
	bl	aws_lc_0_22_0_OPENSSL_free
.LVL364:
	.loc 2 53 3 view .LVU774
	.loc 2 53 18 is_stmt 0 view .LVU775
	str	xzr, [x19, 8]
	.loc 2 54 1 view .LVU776
	b	.L268
.LVL365:
.L291:
	.loc 2 54 1 view .LVU777
.LBE165:
.LBE164:
	.loc 2 72 3 view .LVU778
	adrp	x3, __PRETTY_FUNCTION__.0
	adrp	x1, .LC0
	adrp	x0, .LC7
	add	x3, x3, :lo12:__PRETTY_FUNCTION__.0
	add	x1, x1, :lo12:.LC0
	add	x0, x0, :lo12:.LC7
	mov	w2, 72
	bl	__assert_fail
.LVL366:
.L292:
	.loc 2 84 3 view .LVU779
	adrp	x3, __PRETTY_FUNCTION__.0
	adrp	x1, .LC0
	adrp	x0, .LC8
	add	x3, x3, :lo12:__PRETTY_FUNCTION__.0
	add	x1, x1, :lo12:.LC0
	add	x0, x0, :lo12:.LC8
	mov	w2, 84
	bl	__assert_fail
.LVL367:
.LBE167:
.LBE169:
	.cfi_endproc
.LFE163:
	.size	aead_aes_256_cbc_sha384_tls_init, .-aead_aes_256_cbc_sha384_tls_init
	.section	.text.aead_aes_256_cbc_sha1_tls_init,"ax",@progbits
	.align	2
	.p2align 4,,11
	.type	aead_aes_256_cbc_sha1_tls_init, %function
aead_aes_256_cbc_sha1_tls_init:
.LVL368:
.LFB159:
	.loc 2 410 74 is_stmt 1 view -0
	.cfi_startproc
	.loc 2 411 3 view .LVU781
	.loc 2 410 74 is_stmt 0 view .LVU782
	stp	x29, x30, [sp, -80]!
	.cfi_def_cfa_offset 80
	.cfi_offset 29, -80
	.cfi_offset 30, -72
	mov	x29, sp
	stp	x19, x20, [sp, 16]
	.cfi_offset 19, -64
	.cfi_offset 20, -56
	mov	x20, x3
	mov	x19, x0
	stp	x21, x22, [sp, 32]
	.cfi_offset 21, -48
	.cfi_offset 22, -40
	mov	x22, x1
	mov	x21, x2
	stp	x23, x24, [sp, 48]
	.cfi_offset 23, -32
	.cfi_offset 24, -24
	mov	w24, w4
	stp	x25, x26, [sp, 64]
	.cfi_offset 25, -16
	.cfi_offset 26, -8
	.loc 2 411 10 view .LVU783
	bl	aws_lc_0_22_0_EVP_aes_256_cbc
.LVL369:
	.loc 2 411 10 view .LVU784
	mov	x23, x0
	bl	aws_lc_0_22_0_EVP_sha1
.LVL370:
	mov	x25, x0
.LVL371:
.LBB176:
.LBI176:
	.loc 2 56 12 is_stmt 1 view .LVU785
.LBB177:
	.loc 2 60 3 view .LVU786
	.loc 2 60 6 is_stmt 0 view .LVU787
	cbz	x20, .L295
	.loc 2 60 60 view .LVU788
	bl	aws_lc_0_22_0_EVP_MD_size
.LVL372:
	.loc 2 60 46 view .LVU789
	cmp	x20, x0
	bne	.L317
.L295:
	.loc 2 65 3 is_stmt 1 view .LVU790
	.loc 2 65 18 is_stmt 0 view .LVU791
	ldr	x0, [x19]
	bl	aws_lc_0_22_0_EVP_AEAD_key_length
.LVL373:
	.loc 2 65 6 view .LVU792
	cmp	x21, x0
	bne	.L318
	.loc 2 70 3 is_stmt 1 view .LVU793
	.loc 2 70 24 is_stmt 0 view .LVU794
	mov	x0, x25
	bl	aws_lc_0_22_0_EVP_MD_size
.LVL374:
	mov	x26, x0
	.loc 2 71 24 view .LVU795
	mov	x0, x23
.LVL375:
	.loc 2 71 3 is_stmt 1 view .LVU796
	.loc 2 71 24 is_stmt 0 view .LVU797
	bl	aws_lc_0_22_0_EVP_CIPHER_key_length
.LVL376:
	.loc 2 72 3 is_stmt 1 view .LVU798
	add	x0, x26, w0, uxtw
.LVL377:
	.loc 2 72 3 is_stmt 0 view .LVU799
	cmp	x21, x0
	bne	.L319
	.loc 2 76 3 is_stmt 1 view .LVU800
	.loc 2 76 27 is_stmt 0 view .LVU801
	mov	x0, 896
	bl	aws_lc_0_22_0_OPENSSL_malloc
.LVL378:
	mov	x20, x0
.LVL379:
	.loc 2 77 3 is_stmt 1 view .LVU802
	.loc 2 77 6 is_stmt 0 view .LVU803
	cbz	x0, .L296
	.loc 2 80 3 is_stmt 1 view .LVU804
	.loc 2 80 18 is_stmt 0 view .LVU805
	str	x0, [x19, 8]
	.loc 2 82 3 is_stmt 1 view .LVU806
	.loc 2 83 3 is_stmt 0 view .LVU807
	add	x21, x0, 152
.LVL380:
	.loc 2 82 3 view .LVU808
	bl	aws_lc_0_22_0_EVP_CIPHER_CTX_init
.LVL381:
	.loc 2 83 3 is_stmt 1 view .LVU809
	mov	x0, x21
	bl	aws_lc_0_22_0_HMAC_CTX_init
.LVL382:
	.loc 2 84 3 view .LVU810
	cmp	x26, 64
	bhi	.L320
	.loc 2 85 3 view .LVU811
.LVL383:
.LBB178:
.LBI178:
	.loc 3 934 21 view .LVU812
.LBB179:
	.loc 3 935 3 view .LVU813
	.loc 3 935 6 is_stmt 0 view .LVU814
	cbnz	x26, .L321
.L301:
.LVL384:
	.loc 3 935 6 view .LVU815
.LBE179:
.LBE178:
	.loc 2 86 3 is_stmt 1 view .LVU816
	.loc 2 89 8 is_stmt 0 view .LVU817
	cmp	w24, 1
	.loc 2 86 26 view .LVU818
	strb	w26, [x20, 888]
	.loc 2 87 3 is_stmt 1 view .LVU819
	.loc 2 87 24 is_stmt 0 view .LVU820
	strb	wzr, [x20, 889]
	.loc 2 89 3 is_stmt 1 view .LVU821
	.loc 2 89 8 is_stmt 0 view .LVU822
	mov	x1, x23
	cset	w5, eq
	add	x3, x22, x26
	mov	x0, x20
	mov	x4, 0
	mov	x2, 0
	bl	aws_lc_0_22_0_EVP_CipherInit_ex
.LVL385:
	.loc 2 89 6 view .LVU823
	cbz	w0, .L303
	.loc 2 92 8 view .LVU824
	mov	x3, x25
	mov	x2, x26
	mov	x1, x22
	mov	x0, x21
	mov	x4, 0
	bl	aws_lc_0_22_0_HMAC_Init_ex
.LVL386:
	.loc 2 91 48 view .LVU825
	cbz	w0, .L303
	.loc 2 96 3 is_stmt 1 view .LVU826
	mov	x0, x20
	mov	w1, 0
	bl	aws_lc_0_22_0_EVP_CIPHER_CTX_set_padding
.LVL387:
	.loc 2 98 3 view .LVU827
	.loc 2 98 10 is_stmt 0 view .LVU828
	mov	w0, 1
.LVL388:
	.loc 2 98 10 view .LVU829
.LBE177:
.LBE176:
	.loc 2 411 10 view .LVU830
	b	.L294
.LVL389:
	.p2align 2,,3
.L318:
.LBB186:
.LBB184:
	.loc 2 66 5 is_stmt 1 view .LVU831
	adrp	x3, .LC0
	mov	w4, 66
	add	x3, x3, :lo12:.LC0
	mov	w2, 102
	mov	w1, 0
	mov	w0, 30
	bl	aws_lc_0_22_0_ERR_put_error
.LVL390:
	.loc 2 67 5 view .LVU832
.L296:
	.loc 2 62 12 is_stmt 0 view .LVU833
	mov	w0, 0
.LVL391:
.L294:
	.loc 2 62 12 view .LVU834
.LBE184:
.LBE186:
	.loc 2 413 1 view .LVU835
	ldp	x19, x20, [sp, 16]
.LVL392:
	.loc 2 413 1 view .LVU836
	ldp	x21, x22, [sp, 32]
.LVL393:
	.loc 2 413 1 view .LVU837
	ldp	x23, x24, [sp, 48]
.LVL394:
	.loc 2 413 1 view .LVU838
	ldp	x25, x26, [sp, 64]
	ldp	x29, x30, [sp], 80
	.cfi_remember_state
	.cfi_restore 30
	.cfi_restore 29
	.cfi_restore 25
	.cfi_restore 26
	.cfi_restore 23
	.cfi_restore 24
	.cfi_restore 21
	.cfi_restore 22
	.cfi_restore 19
	.cfi_restore 20
	.cfi_def_cfa_offset 0
	ret
.LVL395:
	.p2align 2,,3
.L317:
	.cfi_restore_state
.LBB187:
.LBB185:
	.loc 2 61 5 is_stmt 1 view .LVU839
	adrp	x3, .LC0
	mov	w4, 61
	add	x3, x3, :lo12:.LC0
	mov	w2, 122
	mov	w1, 0
	mov	w0, 30
	bl	aws_lc_0_22_0_ERR_put_error
.LVL396:
	.loc 2 62 5 view .LVU840
	.loc 2 62 12 is_stmt 0 view .LVU841
	b	.L296
.LVL397:
	.p2align 2,,3
.L321:
.LBB181:
.LBB180:
	.loc 3 939 3 is_stmt 1 view .LVU842
	.loc 3 939 10 is_stmt 0 view .LVU843
	mov	x2, x26
	mov	x1, x22
	add	x0, x20, 824
	bl	memcpy
.LVL398:
	b	.L301
.LVL399:
	.p2align 2,,3
.L303:
	.loc 3 939 10 view .LVU844
.LBE180:
.LBE181:
	.loc 2 93 5 is_stmt 1 view .LVU845
.LBB182:
.LBI182:
	.loc 2 48 13 view .LVU846
.LBB183:
	.loc 2 49 3 view .LVU847
	.loc 2 49 17 is_stmt 0 view .LVU848
	ldr	x20, [x19, 8]
.LVL400:
	.loc 2 50 3 is_stmt 1 view .LVU849
	mov	x0, x20
	bl	aws_lc_0_22_0_EVP_CIPHER_CTX_cleanup
.LVL401:
	.loc 2 51 3 view .LVU850
	add	x0, x20, 152
	bl	aws_lc_0_22_0_HMAC_CTX_cleanup
.LVL402:
	.loc 2 52 3 view .LVU851
	mov	x0, x20
	bl	aws_lc_0_22_0_OPENSSL_free
.LVL403:
	.loc 2 53 3 view .LVU852
	.loc 2 53 18 is_stmt 0 view .LVU853
	str	xzr, [x19, 8]
	.loc 2 54 1 view .LVU854
	b	.L296
.LVL404:
.L319:
	.loc 2 54 1 view .LVU855
.LBE183:
.LBE182:
	.loc 2 72 3 view .LVU856
	adrp	x3, __PRETTY_FUNCTION__.0
	adrp	x1, .LC0
	adrp	x0, .LC7
	add	x3, x3, :lo12:__PRETTY_FUNCTION__.0
	add	x1, x1, :lo12:.LC0
	add	x0, x0, :lo12:.LC7
	mov	w2, 72
	bl	__assert_fail
.LVL405:
.L320:
	.loc 2 84 3 view .LVU857
	adrp	x3, __PRETTY_FUNCTION__.0
	adrp	x1, .LC0
	adrp	x0, .LC8
	add	x3, x3, :lo12:__PRETTY_FUNCTION__.0
	add	x1, x1, :lo12:.LC0
	add	x0, x0, :lo12:.LC8
	mov	w2, 84
	bl	__assert_fail
.LVL406:
.LBE185:
.LBE187:
	.cfi_endproc
.LFE159:
	.size	aead_aes_256_cbc_sha1_tls_init, .-aead_aes_256_cbc_sha1_tls_init
	.section	.text.aead_aes_128_cbc_sha256_tls_init,"ax",@progbits
	.align	2
	.p2align 4,,11
	.type	aead_aes_128_cbc_sha256_tls_init, %function
aead_aes_128_cbc_sha256_tls_init:
.LVL407:
.LFB161:
	.loc 2 425 76 is_stmt 1 view -0
	.cfi_startproc
	.loc 2 426 3 view .LVU859
	.loc 2 425 76 is_stmt 0 view .LVU860
	stp	x29, x30, [sp, -80]!
	.cfi_def_cfa_offset 80
	.cfi_offset 29, -80
	.cfi_offset 30, -72
	mov	x29, sp
	stp	x19, x20, [sp, 16]
	.cfi_offset 19, -64
	.cfi_offset 20, -56
	mov	x20, x3
	mov	x19, x0
	stp	x21, x22, [sp, 32]
	.cfi_offset 21, -48
	.cfi_offset 22, -40
	mov	x22, x1
	mov	x21, x2
	stp	x23, x24, [sp, 48]
	.cfi_offset 23, -32
	.cfi_offset 24, -24
	mov	w24, w4
	stp	x25, x26, [sp, 64]
	.cfi_offset 25, -16
	.cfi_offset 26, -8
	.loc 2 426 10 view .LVU861
	bl	aws_lc_0_22_0_EVP_aes_128_cbc
.LVL408:
	.loc 2 426 10 view .LVU862
	mov	x23, x0
	bl	aws_lc_0_22_0_EVP_sha256
.LVL409:
	mov	x25, x0
.LVL410:
.LBB194:
.LBI194:
	.loc 2 56 12 is_stmt 1 view .LVU863
.LBB195:
	.loc 2 60 3 view .LVU864
	.loc 2 60 6 is_stmt 0 view .LVU865
	cbz	x20, .L323
	.loc 2 60 60 view .LVU866
	bl	aws_lc_0_22_0_EVP_MD_size
.LVL411:
	.loc 2 60 46 view .LVU867
	cmp	x20, x0
	bne	.L345
.L323:
	.loc 2 65 3 is_stmt 1 view .LVU868
	.loc 2 65 18 is_stmt 0 view .LVU869
	ldr	x0, [x19]
	bl	aws_lc_0_22_0_EVP_AEAD_key_length
.LVL412:
	.loc 2 65 6 view .LVU870
	cmp	x21, x0
	bne	.L346
	.loc 2 70 3 is_stmt 1 view .LVU871
	.loc 2 70 24 is_stmt 0 view .LVU872
	mov	x0, x25
	bl	aws_lc_0_22_0_EVP_MD_size
.LVL413:
	mov	x26, x0
	.loc 2 71 24 view .LVU873
	mov	x0, x23
.LVL414:
	.loc 2 71 3 is_stmt 1 view .LVU874
	.loc 2 71 24 is_stmt 0 view .LVU875
	bl	aws_lc_0_22_0_EVP_CIPHER_key_length
.LVL415:
	.loc 2 72 3 is_stmt 1 view .LVU876
	add	x0, x26, w0, uxtw
.LVL416:
	.loc 2 72 3 is_stmt 0 view .LVU877
	cmp	x21, x0
	bne	.L347
	.loc 2 76 3 is_stmt 1 view .LVU878
	.loc 2 76 27 is_stmt 0 view .LVU879
	mov	x0, 896
	bl	aws_lc_0_22_0_OPENSSL_malloc
.LVL417:
	mov	x20, x0
.LVL418:
	.loc 2 77 3 is_stmt 1 view .LVU880
	.loc 2 77 6 is_stmt 0 view .LVU881
	cbz	x0, .L324
	.loc 2 80 3 is_stmt 1 view .LVU882
	.loc 2 80 18 is_stmt 0 view .LVU883
	str	x0, [x19, 8]
	.loc 2 82 3 is_stmt 1 view .LVU884
	.loc 2 83 3 is_stmt 0 view .LVU885
	add	x21, x0, 152
.LVL419:
	.loc 2 82 3 view .LVU886
	bl	aws_lc_0_22_0_EVP_CIPHER_CTX_init
.LVL420:
	.loc 2 83 3 is_stmt 1 view .LVU887
	mov	x0, x21
	bl	aws_lc_0_22_0_HMAC_CTX_init
.LVL421:
	.loc 2 84 3 view .LVU888
	cmp	x26, 64
	bhi	.L348
	.loc 2 85 3 view .LVU889
.LVL422:
.LBB196:
.LBI196:
	.loc 3 934 21 view .LVU890
.LBB197:
	.loc 3 935 3 view .LVU891
	.loc 3 935 6 is_stmt 0 view .LVU892
	cbnz	x26, .L349
.L329:
.LVL423:
	.loc 3 935 6 view .LVU893
.LBE197:
.LBE196:
	.loc 2 86 3 is_stmt 1 view .LVU894
	.loc 2 89 8 is_stmt 0 view .LVU895
	cmp	w24, 1
	.loc 2 86 26 view .LVU896
	strb	w26, [x20, 888]
	.loc 2 87 3 is_stmt 1 view .LVU897
	.loc 2 87 24 is_stmt 0 view .LVU898
	strb	wzr, [x20, 889]
	.loc 2 89 3 is_stmt 1 view .LVU899
	.loc 2 89 8 is_stmt 0 view .LVU900
	mov	x1, x23
	cset	w5, eq
	add	x3, x22, x26
	mov	x0, x20
	mov	x4, 0
	mov	x2, 0
	bl	aws_lc_0_22_0_EVP_CipherInit_ex
.LVL424:
	.loc 2 89 6 view .LVU901
	cbz	w0, .L331
	.loc 2 92 8 view .LVU902
	mov	x3, x25
	mov	x2, x26
	mov	x1, x22
	mov	x0, x21
	mov	x4, 0
	bl	aws_lc_0_22_0_HMAC_Init_ex
.LVL425:
	.loc 2 91 48 view .LVU903
	cbz	w0, .L331
	.loc 2 96 3 is_stmt 1 view .LVU904
	mov	x0, x20
	mov	w1, 0
	bl	aws_lc_0_22_0_EVP_CIPHER_CTX_set_padding
.LVL426:
	.loc 2 98 3 view .LVU905
	.loc 2 98 10 is_stmt 0 view .LVU906
	mov	w0, 1
.LVL427:
	.loc 2 98 10 view .LVU907
.LBE195:
.LBE194:
	.loc 2 426 10 view .LVU908
	b	.L322
.LVL428:
	.p2align 2,,3
.L346:
.LBB204:
.LBB202:
	.loc 2 66 5 is_stmt 1 view .LVU909
	adrp	x3, .LC0
	mov	w4, 66
	add	x3, x3, :lo12:.LC0
	mov	w2, 102
	mov	w1, 0
	mov	w0, 30
	bl	aws_lc_0_22_0_ERR_put_error
.LVL429:
	.loc 2 67 5 view .LVU910
.L324:
	.loc 2 62 12 is_stmt 0 view .LVU911
	mov	w0, 0
.LVL430:
.L322:
	.loc 2 62 12 view .LVU912
.LBE202:
.LBE204:
	.loc 2 428 1 view .LVU913
	ldp	x19, x20, [sp, 16]
.LVL431:
	.loc 2 428 1 view .LVU914
	ldp	x21, x22, [sp, 32]
.LVL432:
	.loc 2 428 1 view .LVU915
	ldp	x23, x24, [sp, 48]
.LVL433:
	.loc 2 428 1 view .LVU916
	ldp	x25, x26, [sp, 64]
	ldp	x29, x30, [sp], 80
	.cfi_remember_state
	.cfi_restore 30
	.cfi_restore 29
	.cfi_restore 25
	.cfi_restore 26
	.cfi_restore 23
	.cfi_restore 24
	.cfi_restore 21
	.cfi_restore 22
	.cfi_restore 19
	.cfi_restore 20
	.cfi_def_cfa_offset 0
	ret
.LVL434:
	.p2align 2,,3
.L345:
	.cfi_restore_state
.LBB205:
.LBB203:
	.loc 2 61 5 is_stmt 1 view .LVU917
	adrp	x3, .LC0
	mov	w4, 61
	add	x3, x3, :lo12:.LC0
	mov	w2, 122
	mov	w1, 0
	mov	w0, 30
	bl	aws_lc_0_22_0_ERR_put_error
.LVL435:
	.loc 2 62 5 view .LVU918
	.loc 2 62 12 is_stmt 0 view .LVU919
	b	.L324
.LVL436:
	.p2align 2,,3
.L349:
.LBB199:
.LBB198:
	.loc 3 939 3 is_stmt 1 view .LVU920
	.loc 3 939 10 is_stmt 0 view .LVU921
	mov	x2, x26
	mov	x1, x22
	add	x0, x20, 824
	bl	memcpy
.LVL437:
	b	.L329
.LVL438:
	.p2align 2,,3
.L331:
	.loc 3 939 10 view .LVU922
.LBE198:
.LBE199:
	.loc 2 93 5 is_stmt 1 view .LVU923
.LBB200:
.LBI200:
	.loc 2 48 13 view .LVU924
.LBB201:
	.loc 2 49 3 view .LVU925
	.loc 2 49 17 is_stmt 0 view .LVU926
	ldr	x20, [x19, 8]
.LVL439:
	.loc 2 50 3 is_stmt 1 view .LVU927
	mov	x0, x20
	bl	aws_lc_0_22_0_EVP_CIPHER_CTX_cleanup
.LVL440:
	.loc 2 51 3 view .LVU928
	add	x0, x20, 152
	bl	aws_lc_0_22_0_HMAC_CTX_cleanup
.LVL441:
	.loc 2 52 3 view .LVU929
	mov	x0, x20
	bl	aws_lc_0_22_0_OPENSSL_free
.LVL442:
	.loc 2 53 3 view .LVU930
	.loc 2 53 18 is_stmt 0 view .LVU931
	str	xzr, [x19, 8]
	.loc 2 54 1 view .LVU932
	b	.L324
.LVL443:
.L347:
	.loc 2 54 1 view .LVU933
.LBE201:
.LBE200:
	.loc 2 72 3 view .LVU934
	adrp	x3, __PRETTY_FUNCTION__.0
	adrp	x1, .LC0
	adrp	x0, .LC7
	add	x3, x3, :lo12:__PRETTY_FUNCTION__.0
	add	x1, x1, :lo12:.LC0
	add	x0, x0, :lo12:.LC7
	mov	w2, 72
	bl	__assert_fail
.LVL444:
.L348:
	.loc 2 84 3 view .LVU935
	adrp	x3, __PRETTY_FUNCTION__.0
	adrp	x1, .LC0
	adrp	x0, .LC8
	add	x3, x3, :lo12:__PRETTY_FUNCTION__.0
	add	x1, x1, :lo12:.LC0
	add	x0, x0, :lo12:.LC8
	mov	w2, 84
	bl	__assert_fail
.LVL445:
.LBE203:
.LBE205:
	.cfi_endproc
.LFE161:
	.size	aead_aes_128_cbc_sha256_tls_init, .-aead_aes_128_cbc_sha256_tls_init
	.section	.text.aead_des_ede3_cbc_sha1_tls_implicit_iv_init,"ax",@progbits
	.align	2
	.p2align 4,,11
	.type	aead_des_ede3_cbc_sha1_tls_implicit_iv_init, %function
aead_des_ede3_cbc_sha1_tls_implicit_iv_init:
.LVL446:
.LFB165:
	.loc 2 455 36 is_stmt 1 view -0
	.cfi_startproc
	.loc 2 456 3 view .LVU937
	.loc 2 455 36 is_stmt 0 view .LVU938
	stp	x29, x30, [sp, -96]!
	.cfi_def_cfa_offset 96
	.cfi_offset 29, -96
	.cfi_offset 30, -88
	mov	x29, sp
	stp	x19, x20, [sp, 16]
	.cfi_offset 19, -80
	.cfi_offset 20, -72
	mov	x20, x3
	mov	x19, x0
	stp	x21, x22, [sp, 32]
	.cfi_offset 21, -64
	.cfi_offset 22, -56
	mov	x22, x1
	mov	x21, x2
	stp	x23, x24, [sp, 48]
	.cfi_offset 23, -48
	.cfi_offset 24, -40
	mov	w24, w4
	stp	x25, x26, [sp, 64]
	.cfi_offset 25, -32
	.cfi_offset 26, -24
	.loc 2 456 10 view .LVU939
	bl	aws_lc_0_22_0_EVP_des_ede3_cbc
.LVL447:
	.loc 2 456 10 view .LVU940
	mov	x23, x0
	bl	aws_lc_0_22_0_EVP_sha1
.LVL448:
	mov	x25, x0
.LVL449:
.LBB212:
.LBI212:
	.loc 2 56 12 is_stmt 1 view .LVU941
.LBB213:
	.loc 2 60 3 view .LVU942
	.loc 2 60 6 is_stmt 0 view .LVU943
	cbz	x20, .L351
	.loc 2 60 60 view .LVU944
	bl	aws_lc_0_22_0_EVP_MD_size
.LVL450:
	.loc 2 60 46 view .LVU945
	cmp	x20, x0
	bne	.L374
.L351:
	.loc 2 65 3 is_stmt 1 view .LVU946
	.loc 2 65 18 is_stmt 0 view .LVU947
	ldr	x0, [x19]
	bl	aws_lc_0_22_0_EVP_AEAD_key_length
.LVL451:
	.loc 2 65 6 view .LVU948
	cmp	x21, x0
	bne	.L375
	.loc 2 70 3 is_stmt 1 view .LVU949
	.loc 2 70 24 is_stmt 0 view .LVU950
	mov	x0, x25
	str	x27, [sp, 80]
	.cfi_offset 27, -16
	.loc 2 70 24 view .LVU951
	bl	aws_lc_0_22_0_EVP_MD_size
.LVL452:
	mov	x26, x0
	.loc 2 71 24 view .LVU952
	mov	x0, x23
.LVL453:
	.loc 2 71 3 is_stmt 1 view .LVU953
	.loc 2 71 24 is_stmt 0 view .LVU954
	bl	aws_lc_0_22_0_EVP_CIPHER_key_length
.LVL454:
	mov	w27, w0
.LVL455:
	.loc 2 72 3 is_stmt 1 view .LVU955
	mov	x0, x23
.LVL456:
	.loc 2 72 3 is_stmt 0 view .LVU956
	bl	aws_lc_0_22_0_EVP_CIPHER_iv_length
.LVL457:
	add	x27, x26, w27, uxtw
.LVL458:
	.loc 2 72 3 view .LVU957
	add	x0, x27, w0, uxtw
	cmp	x21, x0
	bne	.L376
	.loc 2 76 3 is_stmt 1 view .LVU958
	.loc 2 76 27 is_stmt 0 view .LVU959
	mov	x0, 896
	bl	aws_lc_0_22_0_OPENSSL_malloc
.LVL459:
	mov	x20, x0
.LVL460:
	.loc 2 77 3 is_stmt 1 view .LVU960
	.loc 2 77 6 is_stmt 0 view .LVU961
	cbz	x0, .L373
	.loc 2 80 3 is_stmt 1 view .LVU962
	.loc 2 80 18 is_stmt 0 view .LVU963
	str	x0, [x19, 8]
	.loc 2 82 3 is_stmt 1 view .LVU964
	.loc 2 83 3 is_stmt 0 view .LVU965
	add	x21, x0, 152
.LVL461:
	.loc 2 82 3 view .LVU966
	bl	aws_lc_0_22_0_EVP_CIPHER_CTX_init
.LVL462:
	.loc 2 83 3 is_stmt 1 view .LVU967
	mov	x0, x21
	bl	aws_lc_0_22_0_HMAC_CTX_init
.LVL463:
	.loc 2 84 3 view .LVU968
	cmp	x26, 64
	bhi	.L377
	.loc 2 85 3 view .LVU969
.LVL464:
.LBB214:
.LBI214:
	.loc 3 934 21 view .LVU970
.LBB215:
	.loc 3 935 3 view .LVU971
	.loc 3 935 6 is_stmt 0 view .LVU972
	cbnz	x26, .L378
.L357:
.LVL465:
	.loc 3 935 6 view .LVU973
.LBE215:
.LBE214:
	.loc 2 86 3 is_stmt 1 view .LVU974
	.loc 2 89 8 is_stmt 0 view .LVU975
	cmp	w24, 1
	.loc 2 87 24 view .LVU976
	mov	w0, 1
	.loc 2 86 26 view .LVU977
	strb	w26, [x20, 888]
	.loc 2 87 3 is_stmt 1 view .LVU978
	.loc 2 89 8 is_stmt 0 view .LVU979
	add	x4, x22, x27
	.loc 2 87 24 view .LVU980
	strb	w0, [x20, 889]
	.loc 2 89 3 is_stmt 1 view .LVU981
	.loc 2 89 8 is_stmt 0 view .LVU982
	mov	x1, x23
	cset	w5, eq
	add	x3, x22, x26
	mov	x0, x20
	mov	x2, 0
	bl	aws_lc_0_22_0_EVP_CipherInit_ex
.LVL466:
	.loc 2 89 6 view .LVU983
	cbz	w0, .L359
	.loc 2 92 8 view .LVU984
	mov	x3, x25
	mov	x2, x26
	mov	x1, x22
	mov	x0, x21
	mov	x4, 0
	bl	aws_lc_0_22_0_HMAC_Init_ex
.LVL467:
	.loc 2 91 48 view .LVU985
	cbz	w0, .L359
	.loc 2 96 3 is_stmt 1 view .LVU986
	mov	x0, x20
	mov	w1, 0
	bl	aws_lc_0_22_0_EVP_CIPHER_CTX_set_padding
.LVL468:
	.loc 2 98 3 view .LVU987
	.loc 2 98 10 is_stmt 0 view .LVU988
	ldr	x27, [sp, 80]
	.cfi_restore 27
	mov	w0, 1
.LVL469:
	.loc 2 98 10 view .LVU989
.LBE213:
.LBE212:
	.loc 2 456 10 view .LVU990
	b	.L350
.LVL470:
	.p2align 2,,3
.L375:
.LBB222:
.LBB220:
	.loc 2 66 5 is_stmt 1 view .LVU991
	adrp	x3, .LC0
	mov	w4, 66
	add	x3, x3, :lo12:.LC0
	mov	w2, 102
	mov	w1, 0
	mov	w0, 30
	bl	aws_lc_0_22_0_ERR_put_error
.LVL471:
	.loc 2 67 5 view .LVU992
.L352:
	.loc 2 62 12 is_stmt 0 view .LVU993
	mov	w0, 0
.LVL472:
.L350:
	.loc 2 62 12 view .LVU994
.LBE220:
.LBE222:
	.loc 2 458 1 view .LVU995
	ldp	x19, x20, [sp, 16]
.LVL473:
	.loc 2 458 1 view .LVU996
	ldp	x21, x22, [sp, 32]
.LVL474:
	.loc 2 458 1 view .LVU997
	ldp	x23, x24, [sp, 48]
.LVL475:
	.loc 2 458 1 view .LVU998
	ldp	x25, x26, [sp, 64]
	ldp	x29, x30, [sp], 96
	.cfi_remember_state
	.cfi_restore 30
	.cfi_restore 29
	.cfi_restore 25
	.cfi_restore 26
	.cfi_restore 23
	.cfi_restore 24
	.cfi_restore 21
	.cfi_restore 22
	.cfi_restore 19
	.cfi_restore 20
	.cfi_def_cfa_offset 0
	ret
.LVL476:
	.p2align 2,,3
.L374:
	.cfi_restore_state
.LBB223:
.LBB221:
	.loc 2 61 5 is_stmt 1 view .LVU999
	adrp	x3, .LC0
	mov	w4, 61
	add	x3, x3, :lo12:.LC0
	mov	w2, 122
	mov	w1, 0
	mov	w0, 30
	bl	aws_lc_0_22_0_ERR_put_error
.LVL477:
	.loc 2 62 5 view .LVU1000
	.loc 2 62 12 is_stmt 0 view .LVU1001
	b	.L352
.LVL478:
	.p2align 2,,3
.L378:
	.cfi_offset 27, -16
.LBB217:
.LBB216:
	.loc 3 939 3 is_stmt 1 view .LVU1002
	.loc 3 939 10 is_stmt 0 view .LVU1003
	mov	x2, x26
	mov	x1, x22
	add	x0, x20, 824
	bl	memcpy
.LVL479:
	b	.L357
.LVL480:
	.p2align 2,,3
.L359:
	.loc 3 939 10 view .LVU1004
.LBE216:
.LBE217:
	.loc 2 93 5 is_stmt 1 view .LVU1005
.LBB218:
.LBI218:
	.loc 2 48 13 view .LVU1006
.LBB219:
	.loc 2 49 3 view .LVU1007
	.loc 2 49 17 is_stmt 0 view .LVU1008
	ldr	x20, [x19, 8]
.LVL481:
	.loc 2 50 3 is_stmt 1 view .LVU1009
	mov	x0, x20
	bl	aws_lc_0_22_0_EVP_CIPHER_CTX_cleanup
.LVL482:
	.loc 2 51 3 view .LVU1010
	add	x0, x20, 152
	bl	aws_lc_0_22_0_HMAC_CTX_cleanup
.LVL483:
	.loc 2 52 3 view .LVU1011
	mov	x0, x20
	bl	aws_lc_0_22_0_OPENSSL_free
.LVL484:
	.loc 2 53 3 view .LVU1012
	.loc 2 54 1 is_stmt 0 view .LVU1013
	ldr	x27, [sp, 80]
	.cfi_remember_state
	.cfi_restore 27
	.loc 2 53 18 view .LVU1014
	str	xzr, [x19, 8]
	.loc 2 54 1 view .LVU1015
	b	.L352
.LVL485:
	.p2align 2,,3
.L373:
	.cfi_restore_state
	.loc 2 54 1 view .LVU1016
	ldr	x27, [sp, 80]
	.cfi_remember_state
	.cfi_restore 27
	b	.L352
.LVL486:
.L376:
	.cfi_restore_state
	.loc 2 54 1 view .LVU1017
.LBE219:
.LBE218:
	.loc 2 72 3 view .LVU1018
	adrp	x3, __PRETTY_FUNCTION__.0
	adrp	x1, .LC0
	adrp	x0, .LC7
	add	x3, x3, :lo12:__PRETTY_FUNCTION__.0
	add	x1, x1, :lo12:.LC0
	add	x0, x0, :lo12:.LC7
	mov	w2, 72
	bl	__assert_fail
.LVL487:
.L377:
	.loc 2 84 3 view .LVU1019
	adrp	x3, __PRETTY_FUNCTION__.0
	adrp	x1, .LC0
	adrp	x0, .LC8
	add	x3, x3, :lo12:__PRETTY_FUNCTION__.0
	add	x1, x1, :lo12:.LC0
	add	x0, x0, :lo12:.LC8
	mov	w2, 84
	bl	__assert_fail
.LVL488:
.LBE221:
.LBE223:
	.cfi_endproc
.LFE165:
	.size	aead_des_ede3_cbc_sha1_tls_implicit_iv_init, .-aead_des_ede3_cbc_sha1_tls_implicit_iv_init
	.section	.text.aead_null_sha1_tls_init,"ax",@progbits
	.align	2
	.p2align 4,,11
	.type	aead_null_sha1_tls_init, %function
aead_null_sha1_tls_init:
.LVL489:
.LFB167:
	.loc 2 475 67 is_stmt 1 view -0
	.cfi_startproc
	.loc 2 476 3 view .LVU1021
	.loc 2 475 67 is_stmt 0 view .LVU1022
	stp	x29, x30, [sp, -96]!
	.cfi_def_cfa_offset 96
	.cfi_offset 29, -96
	.cfi_offset 30, -88
	mov	x29, sp
	stp	x19, x20, [sp, 16]
	.cfi_offset 19, -80
	.cfi_offset 20, -72
	mov	x20, x3
	mov	x19, x0
	stp	x21, x22, [sp, 32]
	.cfi_offset 21, -64
	.cfi_offset 22, -56
	mov	x22, x1
	mov	x21, x2
	stp	x23, x24, [sp, 48]
	.cfi_offset 23, -48
	.cfi_offset 24, -40
	mov	w24, w4
	stp	x25, x26, [sp, 64]
	.cfi_offset 25, -32
	.cfi_offset 26, -24
	.loc 2 476 10 view .LVU1023
	bl	aws_lc_0_22_0_EVP_enc_null
.LVL490:
	.loc 2 476 10 view .LVU1024
	mov	x23, x0
	bl	aws_lc_0_22_0_EVP_sha1
.LVL491:
	mov	x25, x0
.LVL492:
.LBB230:
.LBI230:
	.loc 2 56 12 is_stmt 1 view .LVU1025
.LBB231:
	.loc 2 60 3 view .LVU1026
	.loc 2 60 6 is_stmt 0 view .LVU1027
	cbz	x20, .L380
	.loc 2 60 60 view .LVU1028
	bl	aws_lc_0_22_0_EVP_MD_size
.LVL493:
	.loc 2 60 46 view .LVU1029
	cmp	x20, x0
	bne	.L403
.L380:
	.loc 2 65 3 is_stmt 1 view .LVU1030
	.loc 2 65 18 is_stmt 0 view .LVU1031
	ldr	x0, [x19]
	bl	aws_lc_0_22_0_EVP_AEAD_key_length
.LVL494:
	.loc 2 65 6 view .LVU1032
	cmp	x21, x0
	bne	.L404
	.loc 2 70 3 is_stmt 1 view .LVU1033
	.loc 2 70 24 is_stmt 0 view .LVU1034
	mov	x0, x25
	str	x27, [sp, 80]
	.cfi_offset 27, -16
	.loc 2 70 24 view .LVU1035
	bl	aws_lc_0_22_0_EVP_MD_size
.LVL495:
	mov	x26, x0
	.loc 2 71 24 view .LVU1036
	mov	x0, x23
.LVL496:
	.loc 2 71 3 is_stmt 1 view .LVU1037
	.loc 2 71 24 is_stmt 0 view .LVU1038
	bl	aws_lc_0_22_0_EVP_CIPHER_key_length
.LVL497:
	mov	w27, w0
.LVL498:
	.loc 2 72 3 is_stmt 1 view .LVU1039
	mov	x0, x23
.LVL499:
	.loc 2 72 3 is_stmt 0 view .LVU1040
	bl	aws_lc_0_22_0_EVP_CIPHER_iv_length
.LVL500:
	add	x27, x26, w27, uxtw
.LVL501:
	.loc 2 72 3 view .LVU1041
	add	x0, x27, w0, uxtw
	cmp	x21, x0
	bne	.L405
	.loc 2 76 3 is_stmt 1 view .LVU1042
	.loc 2 76 27 is_stmt 0 view .LVU1043
	mov	x0, 896
	bl	aws_lc_0_22_0_OPENSSL_malloc
.LVL502:
	mov	x20, x0
.LVL503:
	.loc 2 77 3 is_stmt 1 view .LVU1044
	.loc 2 77 6 is_stmt 0 view .LVU1045
	cbz	x0, .L402
	.loc 2 80 3 is_stmt 1 view .LVU1046
	.loc 2 80 18 is_stmt 0 view .LVU1047
	str	x0, [x19, 8]
	.loc 2 82 3 is_stmt 1 view .LVU1048
	.loc 2 83 3 is_stmt 0 view .LVU1049
	add	x21, x0, 152
.LVL504:
	.loc 2 82 3 view .LVU1050
	bl	aws_lc_0_22_0_EVP_CIPHER_CTX_init
.LVL505:
	.loc 2 83 3 is_stmt 1 view .LVU1051
	mov	x0, x21
	bl	aws_lc_0_22_0_HMAC_CTX_init
.LVL506:
	.loc 2 84 3 view .LVU1052
	cmp	x26, 64
	bhi	.L406
	.loc 2 85 3 view .LVU1053
.LVL507:
.LBB232:
.LBI232:
	.loc 3 934 21 view .LVU1054
.LBB233:
	.loc 3 935 3 view .LVU1055
	.loc 3 935 6 is_stmt 0 view .LVU1056
	cbnz	x26, .L407
.L386:
.LVL508:
	.loc 3 935 6 view .LVU1057
.LBE233:
.LBE232:
	.loc 2 86 3 is_stmt 1 view .LVU1058
	.loc 2 89 8 is_stmt 0 view .LVU1059
	cmp	w24, 1
	.loc 2 87 24 view .LVU1060
	mov	w0, 1
	.loc 2 86 26 view .LVU1061
	strb	w26, [x20, 888]
	.loc 2 87 3 is_stmt 1 view .LVU1062
	.loc 2 89 8 is_stmt 0 view .LVU1063
	add	x4, x22, x27
	.loc 2 87 24 view .LVU1064
	strb	w0, [x20, 889]
	.loc 2 89 3 is_stmt 1 view .LVU1065
	.loc 2 89 8 is_stmt 0 view .LVU1066
	mov	x1, x23
	cset	w5, eq
	add	x3, x22, x26
	mov	x0, x20
	mov	x2, 0
	bl	aws_lc_0_22_0_EVP_CipherInit_ex
.LVL509:
	.loc 2 89 6 view .LVU1067
	cbz	w0, .L388
	.loc 2 92 8 view .LVU1068
	mov	x3, x25
	mov	x2, x26
	mov	x1, x22
	mov	x0, x21
	mov	x4, 0
	bl	aws_lc_0_22_0_HMAC_Init_ex
.LVL510:
	.loc 2 91 48 view .LVU1069
	cbz	w0, .L388
	.loc 2 96 3 is_stmt 1 view .LVU1070
	mov	x0, x20
	mov	w1, 0
	bl	aws_lc_0_22_0_EVP_CIPHER_CTX_set_padding
.LVL511:
	.loc 2 98 3 view .LVU1071
	.loc 2 98 10 is_stmt 0 view .LVU1072
	ldr	x27, [sp, 80]
	.cfi_restore 27
	mov	w0, 1
.LVL512:
	.loc 2 98 10 view .LVU1073
.LBE231:
.LBE230:
	.loc 2 476 10 view .LVU1074
	b	.L379
.LVL513:
	.p2align 2,,3
.L404:
.LBB240:
.LBB238:
	.loc 2 66 5 is_stmt 1 view .LVU1075
	adrp	x3, .LC0
	mov	w4, 66
	add	x3, x3, :lo12:.LC0
	mov	w2, 102
	mov	w1, 0
	mov	w0, 30
	bl	aws_lc_0_22_0_ERR_put_error
.LVL514:
	.loc 2 67 5 view .LVU1076
.L381:
	.loc 2 62 12 is_stmt 0 view .LVU1077
	mov	w0, 0
.LVL515:
.L379:
	.loc 2 62 12 view .LVU1078
.LBE238:
.LBE240:
	.loc 2 478 1 view .LVU1079
	ldp	x19, x20, [sp, 16]
.LVL516:
	.loc 2 478 1 view .LVU1080
	ldp	x21, x22, [sp, 32]
.LVL517:
	.loc 2 478 1 view .LVU1081
	ldp	x23, x24, [sp, 48]
.LVL518:
	.loc 2 478 1 view .LVU1082
	ldp	x25, x26, [sp, 64]
	ldp	x29, x30, [sp], 96
	.cfi_remember_state
	.cfi_restore 30
	.cfi_restore 29
	.cfi_restore 25
	.cfi_restore 26
	.cfi_restore 23
	.cfi_restore 24
	.cfi_restore 21
	.cfi_restore 22
	.cfi_restore 19
	.cfi_restore 20
	.cfi_def_cfa_offset 0
	ret
.LVL519:
	.p2align 2,,3
.L403:
	.cfi_restore_state
.LBB241:
.LBB239:
	.loc 2 61 5 is_stmt 1 view .LVU1083
	adrp	x3, .LC0
	mov	w4, 61
	add	x3, x3, :lo12:.LC0
	mov	w2, 122
	mov	w1, 0
	mov	w0, 30
	bl	aws_lc_0_22_0_ERR_put_error
.LVL520:
	.loc 2 62 5 view .LVU1084
	.loc 2 62 12 is_stmt 0 view .LVU1085
	b	.L381
.LVL521:
	.p2align 2,,3
.L407:
	.cfi_offset 27, -16
.LBB235:
.LBB234:
	.loc 3 939 3 is_stmt 1 view .LVU1086
	.loc 3 939 10 is_stmt 0 view .LVU1087
	mov	x2, x26
	mov	x1, x22
	add	x0, x20, 824
	bl	memcpy
.LVL522:
	b	.L386
.LVL523:
	.p2align 2,,3
.L388:
	.loc 3 939 10 view .LVU1088
.LBE234:
.LBE235:
	.loc 2 93 5 is_stmt 1 view .LVU1089
.LBB236:
.LBI236:
	.loc 2 48 13 view .LVU1090
.LBB237:
	.loc 2 49 3 view .LVU1091
	.loc 2 49 17 is_stmt 0 view .LVU1092
	ldr	x20, [x19, 8]
.LVL524:
	.loc 2 50 3 is_stmt 1 view .LVU1093
	mov	x0, x20
	bl	aws_lc_0_22_0_EVP_CIPHER_CTX_cleanup
.LVL525:
	.loc 2 51 3 view .LVU1094
	add	x0, x20, 152
	bl	aws_lc_0_22_0_HMAC_CTX_cleanup
.LVL526:
	.loc 2 52 3 view .LVU1095
	mov	x0, x20
	bl	aws_lc_0_22_0_OPENSSL_free
.LVL527:
	.loc 2 53 3 view .LVU1096
	.loc 2 54 1 is_stmt 0 view .LVU1097
	ldr	x27, [sp, 80]
	.cfi_remember_state
	.cfi_restore 27
	.loc 2 53 18 view .LVU1098
	str	xzr, [x19, 8]
	.loc 2 54 1 view .LVU1099
	b	.L381
.LVL528:
	.p2align 2,,3
.L402:
	.cfi_restore_state
	.loc 2 54 1 view .LVU1100
	ldr	x27, [sp, 80]
	.cfi_remember_state
	.cfi_restore 27
	b	.L381
.LVL529:
.L405:
	.cfi_restore_state
	.loc 2 54 1 view .LVU1101
.LBE237:
.LBE236:
	.loc 2 72 3 view .LVU1102
	adrp	x3, __PRETTY_FUNCTION__.0
	adrp	x1, .LC0
	adrp	x0, .LC7
	add	x3, x3, :lo12:__PRETTY_FUNCTION__.0
	add	x1, x1, :lo12:.LC0
	add	x0, x0, :lo12:.LC7
	mov	w2, 72
	bl	__assert_fail
.LVL530:
.L406:
	.loc 2 84 3 view .LVU1103
	adrp	x3, __PRETTY_FUNCTION__.0
	adrp	x1, .LC0
	adrp	x0, .LC8
	add	x3, x3, :lo12:__PRETTY_FUNCTION__.0
	add	x1, x1, :lo12:.LC0
	add	x0, x0, :lo12:.LC8
	mov	w2, 84
	bl	__assert_fail
.LVL531:
.LBE239:
.LBE241:
	.cfi_endproc
.LFE167:
	.size	aead_null_sha1_tls_init, .-aead_null_sha1_tls_init
	.section	.text.aead_aes_128_cbc_sha1_tls_implicit_iv_init,"ax",@progbits
	.align	2
	.p2align 4,,11
	.type	aead_aes_128_cbc_sha1_tls_implicit_iv_init, %function
aead_aes_128_cbc_sha1_tls_implicit_iv_init:
.LVL532:
.LFB158:
	.loc 2 403 36 is_stmt 1 view -0
	.cfi_startproc
	.loc 2 404 3 view .LVU1105
	.loc 2 403 36 is_stmt 0 view .LVU1106
	stp	x29, x30, [sp, -96]!
	.cfi_def_cfa_offset 96
	.cfi_offset 29, -96
	.cfi_offset 30, -88
	mov	x29, sp
	stp	x19, x20, [sp, 16]
	.cfi_offset 19, -80
	.cfi_offset 20, -72
	mov	x20, x3
	mov	x19, x0
	stp	x21, x22, [sp, 32]
	.cfi_offset 21, -64
	.cfi_offset 22, -56
	mov	x22, x1
	mov	x21, x2
	stp	x23, x24, [sp, 48]
	.cfi_offset 23, -48
	.cfi_offset 24, -40
	mov	w24, w4
	stp	x25, x26, [sp, 64]
	.cfi_offset 25, -32
	.cfi_offset 26, -24
	.loc 2 404 10 view .LVU1107
	bl	aws_lc_0_22_0_EVP_aes_128_cbc
.LVL533:
	.loc 2 404 10 view .LVU1108
	mov	x23, x0
	bl	aws_lc_0_22_0_EVP_sha1
.LVL534:
	mov	x25, x0
.LVL535:
.LBB248:
.LBI248:
	.loc 2 56 12 is_stmt 1 view .LVU1109
.LBB249:
	.loc 2 60 3 view .LVU1110
	.loc 2 60 6 is_stmt 0 view .LVU1111
	cbz	x20, .L409
	.loc 2 60 60 view .LVU1112
	bl	aws_lc_0_22_0_EVP_MD_size
.LVL536:
	.loc 2 60 46 view .LVU1113
	cmp	x20, x0
	bne	.L432
.L409:
	.loc 2 65 3 is_stmt 1 view .LVU1114
	.loc 2 65 18 is_stmt 0 view .LVU1115
	ldr	x0, [x19]
	bl	aws_lc_0_22_0_EVP_AEAD_key_length
.LVL537:
	.loc 2 65 6 view .LVU1116
	cmp	x21, x0
	bne	.L433
	.loc 2 70 3 is_stmt 1 view .LVU1117
	.loc 2 70 24 is_stmt 0 view .LVU1118
	mov	x0, x25
	str	x27, [sp, 80]
	.cfi_offset 27, -16
	.loc 2 70 24 view .LVU1119
	bl	aws_lc_0_22_0_EVP_MD_size
.LVL538:
	mov	x26, x0
	.loc 2 71 24 view .LVU1120
	mov	x0, x23
.LVL539:
	.loc 2 71 3 is_stmt 1 view .LVU1121
	.loc 2 71 24 is_stmt 0 view .LVU1122
	bl	aws_lc_0_22_0_EVP_CIPHER_key_length
.LVL540:
	mov	w27, w0
.LVL541:
	.loc 2 72 3 is_stmt 1 view .LVU1123
	mov	x0, x23
.LVL542:
	.loc 2 72 3 is_stmt 0 view .LVU1124
	bl	aws_lc_0_22_0_EVP_CIPHER_iv_length
.LVL543:
	add	x27, x26, w27, uxtw
.LVL544:
	.loc 2 72 3 view .LVU1125
	add	x0, x27, w0, uxtw
	cmp	x21, x0
	bne	.L434
	.loc 2 76 3 is_stmt 1 view .LVU1126
	.loc 2 76 27 is_stmt 0 view .LVU1127
	mov	x0, 896
	bl	aws_lc_0_22_0_OPENSSL_malloc
.LVL545:
	mov	x20, x0
.LVL546:
	.loc 2 77 3 is_stmt 1 view .LVU1128
	.loc 2 77 6 is_stmt 0 view .LVU1129
	cbz	x0, .L431
	.loc 2 80 3 is_stmt 1 view .LVU1130
	.loc 2 80 18 is_stmt 0 view .LVU1131
	str	x0, [x19, 8]
	.loc 2 82 3 is_stmt 1 view .LVU1132
	.loc 2 83 3 is_stmt 0 view .LVU1133
	add	x21, x0, 152
.LVL547:
	.loc 2 82 3 view .LVU1134
	bl	aws_lc_0_22_0_EVP_CIPHER_CTX_init
.LVL548:
	.loc 2 83 3 is_stmt 1 view .LVU1135
	mov	x0, x21
	bl	aws_lc_0_22_0_HMAC_CTX_init
.LVL549:
	.loc 2 84 3 view .LVU1136
	cmp	x26, 64
	bhi	.L435
	.loc 2 85 3 view .LVU1137
.LVL550:
.LBB250:
.LBI250:
	.loc 3 934 21 view .LVU1138
.LBB251:
	.loc 3 935 3 view .LVU1139
	.loc 3 935 6 is_stmt 0 view .LVU1140
	cbnz	x26, .L436
.L415:
.LVL551:
	.loc 3 935 6 view .LVU1141
.LBE251:
.LBE250:
	.loc 2 86 3 is_stmt 1 view .LVU1142
	.loc 2 89 8 is_stmt 0 view .LVU1143
	cmp	w24, 1
	.loc 2 87 24 view .LVU1144
	mov	w0, 1
	.loc 2 86 26 view .LVU1145
	strb	w26, [x20, 888]
	.loc 2 87 3 is_stmt 1 view .LVU1146
	.loc 2 89 8 is_stmt 0 view .LVU1147
	add	x4, x22, x27
	.loc 2 87 24 view .LVU1148
	strb	w0, [x20, 889]
	.loc 2 89 3 is_stmt 1 view .LVU1149
	.loc 2 89 8 is_stmt 0 view .LVU1150
	mov	x1, x23
	cset	w5, eq
	add	x3, x22, x26
	mov	x0, x20
	mov	x2, 0
	bl	aws_lc_0_22_0_EVP_CipherInit_ex
.LVL552:
	.loc 2 89 6 view .LVU1151
	cbz	w0, .L417
	.loc 2 92 8 view .LVU1152
	mov	x3, x25
	mov	x2, x26
	mov	x1, x22
	mov	x0, x21
	mov	x4, 0
	bl	aws_lc_0_22_0_HMAC_Init_ex
.LVL553:
	.loc 2 91 48 view .LVU1153
	cbz	w0, .L417
	.loc 2 96 3 is_stmt 1 view .LVU1154
	mov	x0, x20
	mov	w1, 0
	bl	aws_lc_0_22_0_EVP_CIPHER_CTX_set_padding
.LVL554:
	.loc 2 98 3 view .LVU1155
	.loc 2 98 10 is_stmt 0 view .LVU1156
	ldr	x27, [sp, 80]
	.cfi_restore 27
	mov	w0, 1
.LVL555:
	.loc 2 98 10 view .LVU1157
.LBE249:
.LBE248:
	.loc 2 404 10 view .LVU1158
	b	.L408
.LVL556:
	.p2align 2,,3
.L433:
.LBB258:
.LBB256:
	.loc 2 66 5 is_stmt 1 view .LVU1159
	adrp	x3, .LC0
	mov	w4, 66
	add	x3, x3, :lo12:.LC0
	mov	w2, 102
	mov	w1, 0
	mov	w0, 30
	bl	aws_lc_0_22_0_ERR_put_error
.LVL557:
	.loc 2 67 5 view .LVU1160
.L410:
	.loc 2 62 12 is_stmt 0 view .LVU1161
	mov	w0, 0
.LVL558:
.L408:
	.loc 2 62 12 view .LVU1162
.LBE256:
.LBE258:
	.loc 2 406 1 view .LVU1163
	ldp	x19, x20, [sp, 16]
.LVL559:
	.loc 2 406 1 view .LVU1164
	ldp	x21, x22, [sp, 32]
.LVL560:
	.loc 2 406 1 view .LVU1165
	ldp	x23, x24, [sp, 48]
.LVL561:
	.loc 2 406 1 view .LVU1166
	ldp	x25, x26, [sp, 64]
	ldp	x29, x30, [sp], 96
	.cfi_remember_state
	.cfi_restore 30
	.cfi_restore 29
	.cfi_restore 25
	.cfi_restore 26
	.cfi_restore 23
	.cfi_restore 24
	.cfi_restore 21
	.cfi_restore 22
	.cfi_restore 19
	.cfi_restore 20
	.cfi_def_cfa_offset 0
	ret
.LVL562:
	.p2align 2,,3
.L432:
	.cfi_restore_state
.LBB259:
.LBB257:
	.loc 2 61 5 is_stmt 1 view .LVU1167
	adrp	x3, .LC0
	mov	w4, 61
	add	x3, x3, :lo12:.LC0
	mov	w2, 122
	mov	w1, 0
	mov	w0, 30
	bl	aws_lc_0_22_0_ERR_put_error
.LVL563:
	.loc 2 62 5 view .LVU1168
	.loc 2 62 12 is_stmt 0 view .LVU1169
	b	.L410
.LVL564:
	.p2align 2,,3
.L436:
	.cfi_offset 27, -16
.LBB253:
.LBB252:
	.loc 3 939 3 is_stmt 1 view .LVU1170
	.loc 3 939 10 is_stmt 0 view .LVU1171
	mov	x2, x26
	mov	x1, x22
	add	x0, x20, 824
	bl	memcpy
.LVL565:
	b	.L415
.LVL566:
	.p2align 2,,3
.L417:
	.loc 3 939 10 view .LVU1172
.LBE252:
.LBE253:
	.loc 2 93 5 is_stmt 1 view .LVU1173
.LBB254:
.LBI254:
	.loc 2 48 13 view .LVU1174
.LBB255:
	.loc 2 49 3 view .LVU1175
	.loc 2 49 17 is_stmt 0 view .LVU1176
	ldr	x20, [x19, 8]
.LVL567:
	.loc 2 50 3 is_stmt 1 view .LVU1177
	mov	x0, x20
	bl	aws_lc_0_22_0_EVP_CIPHER_CTX_cleanup
.LVL568:
	.loc 2 51 3 view .LVU1178
	add	x0, x20, 152
	bl	aws_lc_0_22_0_HMAC_CTX_cleanup
.LVL569:
	.loc 2 52 3 view .LVU1179
	mov	x0, x20
	bl	aws_lc_0_22_0_OPENSSL_free
.LVL570:
	.loc 2 53 3 view .LVU1180
	.loc 2 54 1 is_stmt 0 view .LVU1181
	ldr	x27, [sp, 80]
	.cfi_remember_state
	.cfi_restore 27
	.loc 2 53 18 view .LVU1182
	str	xzr, [x19, 8]
	.loc 2 54 1 view .LVU1183
	b	.L410
.LVL571:
	.p2align 2,,3
.L431:
	.cfi_restore_state
	.loc 2 54 1 view .LVU1184
	ldr	x27, [sp, 80]
	.cfi_remember_state
	.cfi_restore 27
	b	.L410
.LVL572:
.L434:
	.cfi_restore_state
	.loc 2 54 1 view .LVU1185
.LBE255:
.LBE254:
	.loc 2 72 3 view .LVU1186
	adrp	x3, __PRETTY_FUNCTION__.0
	adrp	x1, .LC0
	adrp	x0, .LC7
	add	x3, x3, :lo12:__PRETTY_FUNCTION__.0
	add	x1, x1, :lo12:.LC0
	add	x0, x0, :lo12:.LC7
	mov	w2, 72
	bl	__assert_fail
.LVL573:
.L435:
	.loc 2 84 3 view .LVU1187
	adrp	x3, __PRETTY_FUNCTION__.0
	adrp	x1, .LC0
	adrp	x0, .LC8
	add	x3, x3, :lo12:__PRETTY_FUNCTION__.0
	add	x1, x1, :lo12:.LC0
	add	x0, x0, :lo12:.LC8
	mov	w2, 84
	bl	__assert_fail
.LVL574:
.LBE257:
.LBE259:
	.cfi_endproc
.LFE158:
	.size	aead_aes_128_cbc_sha1_tls_implicit_iv_init, .-aead_aes_128_cbc_sha1_tls_implicit_iv_init
	.section	.text.aead_aes_256_cbc_sha1_tls_implicit_iv_init,"ax",@progbits
	.align	2
	.p2align 4,,11
	.type	aead_aes_256_cbc_sha1_tls_implicit_iv_init, %function
aead_aes_256_cbc_sha1_tls_implicit_iv_init:
.LVL575:
.LFB160:
	.loc 2 417 36 is_stmt 1 view -0
	.cfi_startproc
	.loc 2 418 3 view .LVU1189
	.loc 2 417 36 is_stmt 0 view .LVU1190
	stp	x29, x30, [sp, -96]!
	.cfi_def_cfa_offset 96
	.cfi_offset 29, -96
	.cfi_offset 30, -88
	mov	x29, sp
	stp	x19, x20, [sp, 16]
	.cfi_offset 19, -80
	.cfi_offset 20, -72
	mov	x20, x3
	mov	x19, x0
	stp	x21, x22, [sp, 32]
	.cfi_offset 21, -64
	.cfi_offset 22, -56
	mov	x22, x1
	mov	x21, x2
	stp	x23, x24, [sp, 48]
	.cfi_offset 23, -48
	.cfi_offset 24, -40
	mov	w24, w4
	stp	x25, x26, [sp, 64]
	.cfi_offset 25, -32
	.cfi_offset 26, -24
	.loc 2 418 10 view .LVU1191
	bl	aws_lc_0_22_0_EVP_aes_256_cbc
.LVL576:
	.loc 2 418 10 view .LVU1192
	mov	x23, x0
	bl	aws_lc_0_22_0_EVP_sha1
.LVL577:
	mov	x25, x0
.LVL578:
.LBB266:
.LBI266:
	.loc 2 56 12 is_stmt 1 view .LVU1193
.LBB267:
	.loc 2 60 3 view .LVU1194
	.loc 2 60 6 is_stmt 0 view .LVU1195
	cbz	x20, .L438
	.loc 2 60 60 view .LVU1196
	bl	aws_lc_0_22_0_EVP_MD_size
.LVL579:
	.loc 2 60 46 view .LVU1197
	cmp	x20, x0
	bne	.L461
.L438:
	.loc 2 65 3 is_stmt 1 view .LVU1198
	.loc 2 65 18 is_stmt 0 view .LVU1199
	ldr	x0, [x19]
	bl	aws_lc_0_22_0_EVP_AEAD_key_length
.LVL580:
	.loc 2 65 6 view .LVU1200
	cmp	x21, x0
	bne	.L462
	.loc 2 70 3 is_stmt 1 view .LVU1201
	.loc 2 70 24 is_stmt 0 view .LVU1202
	mov	x0, x25
	str	x27, [sp, 80]
	.cfi_offset 27, -16
	.loc 2 70 24 view .LVU1203
	bl	aws_lc_0_22_0_EVP_MD_size
.LVL581:
	mov	x26, x0
	.loc 2 71 24 view .LVU1204
	mov	x0, x23
.LVL582:
	.loc 2 71 3 is_stmt 1 view .LVU1205
	.loc 2 71 24 is_stmt 0 view .LVU1206
	bl	aws_lc_0_22_0_EVP_CIPHER_key_length
.LVL583:
	mov	w27, w0
.LVL584:
	.loc 2 72 3 is_stmt 1 view .LVU1207
	mov	x0, x23
.LVL585:
	.loc 2 72 3 is_stmt 0 view .LVU1208
	bl	aws_lc_0_22_0_EVP_CIPHER_iv_length
.LVL586:
	add	x27, x26, w27, uxtw
.LVL587:
	.loc 2 72 3 view .LVU1209
	add	x0, x27, w0, uxtw
	cmp	x21, x0
	bne	.L463
	.loc 2 76 3 is_stmt 1 view .LVU1210
	.loc 2 76 27 is_stmt 0 view .LVU1211
	mov	x0, 896
	bl	aws_lc_0_22_0_OPENSSL_malloc
.LVL588:
	mov	x20, x0
.LVL589:
	.loc 2 77 3 is_stmt 1 view .LVU1212
	.loc 2 77 6 is_stmt 0 view .LVU1213
	cbz	x0, .L460
	.loc 2 80 3 is_stmt 1 view .LVU1214
	.loc 2 80 18 is_stmt 0 view .LVU1215
	str	x0, [x19, 8]
	.loc 2 82 3 is_stmt 1 view .LVU1216
	.loc 2 83 3 is_stmt 0 view .LVU1217
	add	x21, x0, 152
.LVL590:
	.loc 2 82 3 view .LVU1218
	bl	aws_lc_0_22_0_EVP_CIPHER_CTX_init
.LVL591:
	.loc 2 83 3 is_stmt 1 view .LVU1219
	mov	x0, x21
	bl	aws_lc_0_22_0_HMAC_CTX_init
.LVL592:
	.loc 2 84 3 view .LVU1220
	cmp	x26, 64
	bhi	.L464
	.loc 2 85 3 view .LVU1221
.LVL593:
.LBB268:
.LBI268:
	.loc 3 934 21 view .LVU1222
.LBB269:
	.loc 3 935 3 view .LVU1223
	.loc 3 935 6 is_stmt 0 view .LVU1224
	cbnz	x26, .L465
.L444:
.LVL594:
	.loc 3 935 6 view .LVU1225
.LBE269:
.LBE268:
	.loc 2 86 3 is_stmt 1 view .LVU1226
	.loc 2 89 8 is_stmt 0 view .LVU1227
	cmp	w24, 1
	.loc 2 87 24 view .LVU1228
	mov	w0, 1
	.loc 2 86 26 view .LVU1229
	strb	w26, [x20, 888]
	.loc 2 87 3 is_stmt 1 view .LVU1230
	.loc 2 89 8 is_stmt 0 view .LVU1231
	add	x4, x22, x27
	.loc 2 87 24 view .LVU1232
	strb	w0, [x20, 889]
	.loc 2 89 3 is_stmt 1 view .LVU1233
	.loc 2 89 8 is_stmt 0 view .LVU1234
	mov	x1, x23
	cset	w5, eq
	add	x3, x22, x26
	mov	x0, x20
	mov	x2, 0
	bl	aws_lc_0_22_0_EVP_CipherInit_ex
.LVL595:
	.loc 2 89 6 view .LVU1235
	cbz	w0, .L446
	.loc 2 92 8 view .LVU1236
	mov	x3, x25
	mov	x2, x26
	mov	x1, x22
	mov	x0, x21
	mov	x4, 0
	bl	aws_lc_0_22_0_HMAC_Init_ex
.LVL596:
	.loc 2 91 48 view .LVU1237
	cbz	w0, .L446
	.loc 2 96 3 is_stmt 1 view .LVU1238
	mov	x0, x20
	mov	w1, 0
	bl	aws_lc_0_22_0_EVP_CIPHER_CTX_set_padding
.LVL597:
	.loc 2 98 3 view .LVU1239
	.loc 2 98 10 is_stmt 0 view .LVU1240
	ldr	x27, [sp, 80]
	.cfi_restore 27
	mov	w0, 1
.LVL598:
	.loc 2 98 10 view .LVU1241
.LBE267:
.LBE266:
	.loc 2 418 10 view .LVU1242
	b	.L437
.LVL599:
	.p2align 2,,3
.L462:
.LBB276:
.LBB274:
	.loc 2 66 5 is_stmt 1 view .LVU1243
	adrp	x3, .LC0
	mov	w4, 66
	add	x3, x3, :lo12:.LC0
	mov	w2, 102
	mov	w1, 0
	mov	w0, 30
	bl	aws_lc_0_22_0_ERR_put_error
.LVL600:
	.loc 2 67 5 view .LVU1244
.L439:
	.loc 2 62 12 is_stmt 0 view .LVU1245
	mov	w0, 0
.LVL601:
.L437:
	.loc 2 62 12 view .LVU1246
.LBE274:
.LBE276:
	.loc 2 420 1 view .LVU1247
	ldp	x19, x20, [sp, 16]
.LVL602:
	.loc 2 420 1 view .LVU1248
	ldp	x21, x22, [sp, 32]
.LVL603:
	.loc 2 420 1 view .LVU1249
	ldp	x23, x24, [sp, 48]
.LVL604:
	.loc 2 420 1 view .LVU1250
	ldp	x25, x26, [sp, 64]
	ldp	x29, x30, [sp], 96
	.cfi_remember_state
	.cfi_restore 30
	.cfi_restore 29
	.cfi_restore 25
	.cfi_restore 26
	.cfi_restore 23
	.cfi_restore 24
	.cfi_restore 21
	.cfi_restore 22
	.cfi_restore 19
	.cfi_restore 20
	.cfi_def_cfa_offset 0
	ret
.LVL605:
	.p2align 2,,3
.L461:
	.cfi_restore_state
.LBB277:
.LBB275:
	.loc 2 61 5 is_stmt 1 view .LVU1251
	adrp	x3, .LC0
	mov	w4, 61
	add	x3, x3, :lo12:.LC0
	mov	w2, 122
	mov	w1, 0
	mov	w0, 30
	bl	aws_lc_0_22_0_ERR_put_error
.LVL606:
	.loc 2 62 5 view .LVU1252
	.loc 2 62 12 is_stmt 0 view .LVU1253
	b	.L439
.LVL607:
	.p2align 2,,3
.L465:
	.cfi_offset 27, -16
.LBB271:
.LBB270:
	.loc 3 939 3 is_stmt 1 view .LVU1254
	.loc 3 939 10 is_stmt 0 view .LVU1255
	mov	x2, x26
	mov	x1, x22
	add	x0, x20, 824
	bl	memcpy
.LVL608:
	b	.L444
.LVL609:
	.p2align 2,,3
.L446:
	.loc 3 939 10 view .LVU1256
.LBE270:
.LBE271:
	.loc 2 93 5 is_stmt 1 view .LVU1257
.LBB272:
.LBI272:
	.loc 2 48 13 view .LVU1258
.LBB273:
	.loc 2 49 3 view .LVU1259
	.loc 2 49 17 is_stmt 0 view .LVU1260
	ldr	x20, [x19, 8]
.LVL610:
	.loc 2 50 3 is_stmt 1 view .LVU1261
	mov	x0, x20
	bl	aws_lc_0_22_0_EVP_CIPHER_CTX_cleanup
.LVL611:
	.loc 2 51 3 view .LVU1262
	add	x0, x20, 152
	bl	aws_lc_0_22_0_HMAC_CTX_cleanup
.LVL612:
	.loc 2 52 3 view .LVU1263
	mov	x0, x20
	bl	aws_lc_0_22_0_OPENSSL_free
.LVL613:
	.loc 2 53 3 view .LVU1264
	.loc 2 54 1 is_stmt 0 view .LVU1265
	ldr	x27, [sp, 80]
	.cfi_remember_state
	.cfi_restore 27
	.loc 2 53 18 view .LVU1266
	str	xzr, [x19, 8]
	.loc 2 54 1 view .LVU1267
	b	.L439
.LVL614:
	.p2align 2,,3
.L460:
	.cfi_restore_state
	.loc 2 54 1 view .LVU1268
	ldr	x27, [sp, 80]
	.cfi_remember_state
	.cfi_restore 27
	b	.L439
.LVL615:
.L463:
	.cfi_restore_state
	.loc 2 54 1 view .LVU1269
.LBE273:
.LBE272:
	.loc 2 72 3 view .LVU1270
	adrp	x3, __PRETTY_FUNCTION__.0
	adrp	x1, .LC0
	adrp	x0, .LC7
	add	x3, x3, :lo12:__PRETTY_FUNCTION__.0
	add	x1, x1, :lo12:.LC0
	add	x0, x0, :lo12:.LC7
	mov	w2, 72
	bl	__assert_fail
.LVL616:
.L464:
	.loc 2 84 3 view .LVU1271
	adrp	x3, __PRETTY_FUNCTION__.0
	adrp	x1, .LC0
	adrp	x0, .LC8
	add	x3, x3, :lo12:__PRETTY_FUNCTION__.0
	add	x1, x1, :lo12:.LC0
	add	x0, x0, :lo12:.LC8
	mov	w2, 84
	bl	__assert_fail
.LVL617:
.LBE275:
.LBE277:
	.cfi_endproc
.LFE160:
	.size	aead_aes_256_cbc_sha1_tls_implicit_iv_init, .-aead_aes_256_cbc_sha1_tls_implicit_iv_init
	.section	.text.aws_lc_0_22_0_EVP_aead_aes_128_cbc_sha1_tls,"ax",@progbits
	.align	2
	.p2align 4,,11
	.global	aws_lc_0_22_0_EVP_aead_aes_128_cbc_sha1_tls
	.type	aws_lc_0_22_0_EVP_aead_aes_128_cbc_sha1_tls, %function
aws_lc_0_22_0_EVP_aead_aes_128_cbc_sha1_tls:
.LFB168:
	.loc 2 680 53 is_stmt 1 view -0
	.cfi_startproc
	.loc 2 681 3 view .LVU1273
	.loc 2 681 10 is_stmt 0 view .LVU1274
	adrp	x0, aead_aes_128_cbc_sha1_tls
	.loc 2 682 1 view .LVU1275
	add	x0, x0, :lo12:aead_aes_128_cbc_sha1_tls
	ret
	.cfi_endproc
.LFE168:
	.size	aws_lc_0_22_0_EVP_aead_aes_128_cbc_sha1_tls, .-aws_lc_0_22_0_EVP_aead_aes_128_cbc_sha1_tls
	.section	.text.aws_lc_0_22_0_EVP_aead_aes_128_cbc_sha1_tls_implicit_iv,"ax",@progbits
	.align	2
	.p2align 4,,11
	.global	aws_lc_0_22_0_EVP_aead_aes_128_cbc_sha1_tls_implicit_iv
	.type	aws_lc_0_22_0_EVP_aead_aes_128_cbc_sha1_tls_implicit_iv, %function
aws_lc_0_22_0_EVP_aead_aes_128_cbc_sha1_tls_implicit_iv:
.LFB169:
	.loc 2 684 65 is_stmt 1 view -0
	.cfi_startproc
	.loc 2 685 3 view .LVU1277
	.loc 2 685 10 is_stmt 0 view .LVU1278
	adrp	x0, aead_aes_128_cbc_sha1_tls_implicit_iv
	.loc 2 686 1 view .LVU1279
	add	x0, x0, :lo12:aead_aes_128_cbc_sha1_tls_implicit_iv
	ret
	.cfi_endproc
.LFE169:
	.size	aws_lc_0_22_0_EVP_aead_aes_128_cbc_sha1_tls_implicit_iv, .-aws_lc_0_22_0_EVP_aead_aes_128_cbc_sha1_tls_implicit_iv
	.section	.text.aws_lc_0_22_0_EVP_aead_aes_256_cbc_sha1_tls,"ax",@progbits
	.align	2
	.p2align 4,,11
	.global	aws_lc_0_22_0_EVP_aead_aes_256_cbc_sha1_tls
	.type	aws_lc_0_22_0_EVP_aead_aes_256_cbc_sha1_tls, %function
aws_lc_0_22_0_EVP_aead_aes_256_cbc_sha1_tls:
.LFB170:
	.loc 2 688 53 is_stmt 1 view -0
	.cfi_startproc
	.loc 2 689 3 view .LVU1281
	.loc 2 689 10 is_stmt 0 view .LVU1282
	adrp	x0, aead_aes_256_cbc_sha1_tls
	.loc 2 690 1 view .LVU1283
	add	x0, x0, :lo12:aead_aes_256_cbc_sha1_tls
	ret
	.cfi_endproc
.LFE170:
	.size	aws_lc_0_22_0_EVP_aead_aes_256_cbc_sha1_tls, .-aws_lc_0_22_0_EVP_aead_aes_256_cbc_sha1_tls
	.section	.text.aws_lc_0_22_0_EVP_aead_aes_256_cbc_sha1_tls_implicit_iv,"ax",@progbits
	.align	2
	.p2align 4,,11
	.global	aws_lc_0_22_0_EVP_aead_aes_256_cbc_sha1_tls_implicit_iv
	.type	aws_lc_0_22_0_EVP_aead_aes_256_cbc_sha1_tls_implicit_iv, %function
aws_lc_0_22_0_EVP_aead_aes_256_cbc_sha1_tls_implicit_iv:
.LFB171:
	.loc 2 692 65 is_stmt 1 view -0
	.cfi_startproc
	.loc 2 693 3 view .LVU1285
	.loc 2 693 10 is_stmt 0 view .LVU1286
	adrp	x0, aead_aes_256_cbc_sha1_tls_implicit_iv
	.loc 2 694 1 view .LVU1287
	add	x0, x0, :lo12:aead_aes_256_cbc_sha1_tls_implicit_iv
	ret
	.cfi_endproc
.LFE171:
	.size	aws_lc_0_22_0_EVP_aead_aes_256_cbc_sha1_tls_implicit_iv, .-aws_lc_0_22_0_EVP_aead_aes_256_cbc_sha1_tls_implicit_iv
	.section	.text.aws_lc_0_22_0_EVP_aead_aes_128_cbc_sha256_tls,"ax",@progbits
	.align	2
	.p2align 4,,11
	.global	aws_lc_0_22_0_EVP_aead_aes_128_cbc_sha256_tls
	.type	aws_lc_0_22_0_EVP_aead_aes_128_cbc_sha256_tls, %function
aws_lc_0_22_0_EVP_aead_aes_128_cbc_sha256_tls:
.LFB172:
	.loc 2 696 55 is_stmt 1 view -0
	.cfi_startproc
	.loc 2 697 3 view .LVU1289
	.loc 2 697 10 is_stmt 0 view .LVU1290
	adrp	x0, aead_aes_128_cbc_sha256_tls
	.loc 2 698 1 view .LVU1291
	add	x0, x0, :lo12:aead_aes_128_cbc_sha256_tls
	ret
	.cfi_endproc
.LFE172:
	.size	aws_lc_0_22_0_EVP_aead_aes_128_cbc_sha256_tls, .-aws_lc_0_22_0_EVP_aead_aes_128_cbc_sha256_tls
	.section	.text.aws_lc_0_22_0_EVP_aead_aes_128_cbc_sha256_tls_implicit_iv,"ax",@progbits
	.align	2
	.p2align 4,,11
	.global	aws_lc_0_22_0_EVP_aead_aes_128_cbc_sha256_tls_implicit_iv
	.type	aws_lc_0_22_0_EVP_aead_aes_128_cbc_sha256_tls_implicit_iv, %function
aws_lc_0_22_0_EVP_aead_aes_128_cbc_sha256_tls_implicit_iv:
.LFB173:
	.loc 2 700 67 is_stmt 1 view -0
	.cfi_startproc
	.loc 2 701 3 view .LVU1293
	.loc 2 701 10 is_stmt 0 view .LVU1294
	adrp	x0, aead_aes_128_cbc_sha256_tls_implicit_iv
	.loc 2 702 1 view .LVU1295
	add	x0, x0, :lo12:aead_aes_128_cbc_sha256_tls_implicit_iv
	ret
	.cfi_endproc
.LFE173:
	.size	aws_lc_0_22_0_EVP_aead_aes_128_cbc_sha256_tls_implicit_iv, .-aws_lc_0_22_0_EVP_aead_aes_128_cbc_sha256_tls_implicit_iv
	.section	.text.aws_lc_0_22_0_EVP_aead_aes_256_cbc_sha384_tls,"ax",@progbits
	.align	2
	.p2align 4,,11
	.global	aws_lc_0_22_0_EVP_aead_aes_256_cbc_sha384_tls
	.type	aws_lc_0_22_0_EVP_aead_aes_256_cbc_sha384_tls, %function
aws_lc_0_22_0_EVP_aead_aes_256_cbc_sha384_tls:
.LFB174:
	.loc 2 704 55 is_stmt 1 view -0
	.cfi_startproc
	.loc 2 705 3 view .LVU1297
	.loc 2 705 10 is_stmt 0 view .LVU1298
	adrp	x0, aead_aes_256_cbc_sha384_tls
	.loc 2 706 1 view .LVU1299
	add	x0, x0, :lo12:aead_aes_256_cbc_sha384_tls
	ret
	.cfi_endproc
.LFE174:
	.size	aws_lc_0_22_0_EVP_aead_aes_256_cbc_sha384_tls, .-aws_lc_0_22_0_EVP_aead_aes_256_cbc_sha384_tls
	.section	.text.aws_lc_0_22_0_EVP_aead_des_ede3_cbc_sha1_tls,"ax",@progbits
	.align	2
	.p2align 4,,11
	.global	aws_lc_0_22_0_EVP_aead_des_ede3_cbc_sha1_tls
	.type	aws_lc_0_22_0_EVP_aead_des_ede3_cbc_sha1_tls, %function
aws_lc_0_22_0_EVP_aead_des_ede3_cbc_sha1_tls:
.LFB175:
	.loc 2 708 54 is_stmt 1 view -0
	.cfi_startproc
	.loc 2 709 3 view .LVU1301
	.loc 2 709 10 is_stmt 0 view .LVU1302
	adrp	x0, aead_des_ede3_cbc_sha1_tls
	.loc 2 710 1 view .LVU1303
	add	x0, x0, :lo12:aead_des_ede3_cbc_sha1_tls
	ret
	.cfi_endproc
.LFE175:
	.size	aws_lc_0_22_0_EVP_aead_des_ede3_cbc_sha1_tls, .-aws_lc_0_22_0_EVP_aead_des_ede3_cbc_sha1_tls
	.section	.text.aws_lc_0_22_0_EVP_aead_des_ede3_cbc_sha1_tls_implicit_iv,"ax",@progbits
	.align	2
	.p2align 4,,11
	.global	aws_lc_0_22_0_EVP_aead_des_ede3_cbc_sha1_tls_implicit_iv
	.type	aws_lc_0_22_0_EVP_aead_des_ede3_cbc_sha1_tls_implicit_iv, %function
aws_lc_0_22_0_EVP_aead_des_ede3_cbc_sha1_tls_implicit_iv:
.LFB176:
	.loc 2 712 66 is_stmt 1 view -0
	.cfi_startproc
	.loc 2 713 3 view .LVU1305
	.loc 2 713 10 is_stmt 0 view .LVU1306
	adrp	x0, aead_des_ede3_cbc_sha1_tls_implicit_iv
	.loc 2 714 1 view .LVU1307
	add	x0, x0, :lo12:aead_des_ede3_cbc_sha1_tls_implicit_iv
	ret
	.cfi_endproc
.LFE176:
	.size	aws_lc_0_22_0_EVP_aead_des_ede3_cbc_sha1_tls_implicit_iv, .-aws_lc_0_22_0_EVP_aead_des_ede3_cbc_sha1_tls_implicit_iv
	.section	.text.aws_lc_0_22_0_EVP_aead_null_sha1_tls,"ax",@progbits
	.align	2
	.p2align 4,,11
	.global	aws_lc_0_22_0_EVP_aead_null_sha1_tls
	.type	aws_lc_0_22_0_EVP_aead_null_sha1_tls, %function
aws_lc_0_22_0_EVP_aead_null_sha1_tls:
.LFB177:
	.loc 2 716 46 is_stmt 1 view -0
	.cfi_startproc
	.loc 2 716 48 view .LVU1309
	.loc 2 716 55 is_stmt 0 view .LVU1310
	adrp	x0, aead_null_sha1_tls
	.loc 2 716 76 view .LVU1311
	add	x0, x0, :lo12:aead_null_sha1_tls
	ret
	.cfi_endproc
.LFE177:
	.size	aws_lc_0_22_0_EVP_aead_null_sha1_tls, .-aws_lc_0_22_0_EVP_aead_null_sha1_tls
	.section	.rodata.__PRETTY_FUNCTION__.0,"a"
	.align	3
	.type	__PRETTY_FUNCTION__.0, %object
	.size	__PRETTY_FUNCTION__.0, 14
__PRETTY_FUNCTION__.0:
	.string	"aead_tls_init"
	.section	.rodata.__PRETTY_FUNCTION__.1,"a"
	.align	3
	.type	__PRETTY_FUNCTION__.1, %object
	.size	__PRETTY_FUNCTION__.1, 14
__PRETTY_FUNCTION__.1:
	.string	"aead_tls_open"
	.section	.rodata.__PRETTY_FUNCTION__.2,"a"
	.align	3
	.type	__PRETTY_FUNCTION__.2, %object
	.size	__PRETTY_FUNCTION__.2, 22
__PRETTY_FUNCTION__.2:
	.string	"aead_tls_seal_scatter"
	.section	.rodata.__PRETTY_FUNCTION__.3,"a"
	.align	3
	.type	__PRETTY_FUNCTION__.3, %object
	.size	__PRETTY_FUNCTION__.3, 17
__PRETTY_FUNCTION__.3:
	.string	"aead_tls_tag_len"
	.section	.data.rel.ro.local.aead_null_sha1_tls,"aw"
	.align	3
	.type	aead_null_sha1_tls, %object
	.size	aead_null_sha1_tls, 96
aead_null_sha1_tls:
	.byte	20
	.byte	0
	.byte	20
	.byte	20
	.hword	15
	.zero	2
	.word	0
	.zero	4
	.xword	0
	.xword	aead_null_sha1_tls_init
	.xword	aead_tls_cleanup
	.xword	aead_tls_open
	.xword	aead_tls_seal_scatter
	.xword	0
	.xword	0
	.xword	aead_tls_tag_len
	.xword	0
	.xword	0
	.section	.data.rel.ro.local.aead_des_ede3_cbc_sha1_tls_implicit_iv,"aw"
	.align	3
	.type	aead_des_ede3_cbc_sha1_tls_implicit_iv, %object
	.size	aead_des_ede3_cbc_sha1_tls_implicit_iv, 96
aead_des_ede3_cbc_sha1_tls_implicit_iv:
	.byte	52
	.byte	0
	.byte	28
	.byte	20
	.hword	14
	.zero	2
	.word	0
	.zero	4
	.xword	0
	.xword	aead_des_ede3_cbc_sha1_tls_implicit_iv_init
	.xword	aead_tls_cleanup
	.xword	aead_tls_open
	.xword	aead_tls_seal_scatter
	.xword	0
	.xword	aead_tls_get_iv
	.xword	aead_tls_tag_len
	.xword	0
	.xword	0
	.section	.data.rel.ro.local.aead_des_ede3_cbc_sha1_tls,"aw"
	.align	3
	.type	aead_des_ede3_cbc_sha1_tls, %object
	.size	aead_des_ede3_cbc_sha1_tls, 96
aead_des_ede3_cbc_sha1_tls:
	.byte	44
	.byte	8
	.byte	28
	.byte	20
	.hword	13
	.zero	2
	.word	0
	.zero	4
	.xword	0
	.xword	aead_des_ede3_cbc_sha1_tls_init
	.xword	aead_tls_cleanup
	.xword	aead_tls_open
	.xword	aead_tls_seal_scatter
	.xword	0
	.xword	0
	.xword	aead_tls_tag_len
	.xword	0
	.xword	0
	.section	.data.rel.ro.local.aead_aes_256_cbc_sha384_tls,"aw"
	.align	3
	.type	aead_aes_256_cbc_sha384_tls, %object
	.size	aead_aes_256_cbc_sha384_tls, 96
aead_aes_256_cbc_sha384_tls:
	.byte	80
	.byte	16
	.byte	64
	.byte	48
	.hword	28
	.zero	2
	.word	0
	.zero	4
	.xword	0
	.xword	aead_aes_256_cbc_sha384_tls_init
	.xword	aead_tls_cleanup
	.xword	aead_tls_open
	.xword	aead_tls_seal_scatter
	.xword	0
	.xword	0
	.xword	aead_tls_tag_len
	.xword	0
	.xword	0
	.section	.data.rel.ro.local.aead_aes_128_cbc_sha256_tls_implicit_iv,"aw"
	.align	3
	.type	aead_aes_128_cbc_sha256_tls_implicit_iv, %object
	.size	aead_aes_128_cbc_sha256_tls_implicit_iv, 96
aead_aes_128_cbc_sha256_tls_implicit_iv:
	.byte	64
	.byte	0
	.byte	48
	.byte	32
	.hword	12
	.zero	2
	.word	0
	.zero	4
	.xword	0
	.xword	aead_aes_128_cbc_sha256_tls_implicit_iv_init
	.xword	aead_tls_cleanup
	.xword	aead_tls_open
	.xword	aead_tls_seal_scatter
	.xword	0
	.xword	aead_tls_get_iv
	.xword	aead_tls_tag_len
	.xword	0
	.xword	0
	.section	.data.rel.ro.local.aead_aes_128_cbc_sha256_tls,"aw"
	.align	3
	.type	aead_aes_128_cbc_sha256_tls, %object
	.size	aead_aes_128_cbc_sha256_tls, 96
aead_aes_128_cbc_sha256_tls:
	.byte	48
	.byte	16
	.byte	48
	.byte	32
	.hword	11
	.zero	2
	.word	0
	.zero	4
	.xword	0
	.xword	aead_aes_128_cbc_sha256_tls_init
	.xword	aead_tls_cleanup
	.xword	aead_tls_open
	.xword	aead_tls_seal_scatter
	.xword	0
	.xword	0
	.xword	aead_tls_tag_len
	.xword	0
	.xword	0
	.section	.data.rel.ro.local.aead_aes_256_cbc_sha1_tls_implicit_iv,"aw"
	.align	3
	.type	aead_aes_256_cbc_sha1_tls_implicit_iv, %object
	.size	aead_aes_256_cbc_sha1_tls_implicit_iv, 96
aead_aes_256_cbc_sha1_tls_implicit_iv:
	.byte	68
	.byte	0
	.byte	36
	.byte	20
	.hword	10
	.zero	2
	.word	0
	.zero	4
	.xword	0
	.xword	aead_aes_256_cbc_sha1_tls_implicit_iv_init
	.xword	aead_tls_cleanup
	.xword	aead_tls_open
	.xword	aead_tls_seal_scatter
	.xword	0
	.xword	aead_tls_get_iv
	.xword	aead_tls_tag_len
	.xword	0
	.xword	0
	.section	.data.rel.ro.local.aead_aes_256_cbc_sha1_tls,"aw"
	.align	3
	.type	aead_aes_256_cbc_sha1_tls, %object
	.size	aead_aes_256_cbc_sha1_tls, 96
aead_aes_256_cbc_sha1_tls:
	.byte	52
	.byte	16
	.byte	36
	.byte	20
	.hword	9
	.zero	2
	.word	0
	.zero	4
	.xword	0
	.xword	aead_aes_256_cbc_sha1_tls_init
	.xword	aead_tls_cleanup
	.xword	aead_tls_open
	.xword	aead_tls_seal_scatter
	.xword	0
	.xword	0
	.xword	aead_tls_tag_len
	.xword	0
	.xword	0
	.section	.data.rel.ro.local.aead_aes_128_cbc_sha1_tls_implicit_iv,"aw"
	.align	3
	.type	aead_aes_128_cbc_sha1_tls_implicit_iv, %object
	.size	aead_aes_128_cbc_sha1_tls_implicit_iv, 96
aead_aes_128_cbc_sha1_tls_implicit_iv:
	.byte	52
	.byte	0
	.byte	36
	.byte	20
	.hword	8
	.zero	2
	.word	0
	.zero	4
	.xword	0
	.xword	aead_aes_128_cbc_sha1_tls_implicit_iv_init
	.xword	aead_tls_cleanup
	.xword	aead_tls_open
	.xword	aead_tls_seal_scatter
	.xword	0
	.xword	aead_tls_get_iv
	.xword	aead_tls_tag_len
	.xword	0
	.xword	0
	.section	.data.rel.ro.local.aead_aes_128_cbc_sha1_tls,"aw"
	.align	3
	.type	aead_aes_128_cbc_sha1_tls, %object
	.size	aead_aes_128_cbc_sha1_tls, 96
aead_aes_128_cbc_sha1_tls:
	.byte	36
	.byte	16
	.byte	36
	.byte	20
	.hword	7
	.zero	2
	.word	0
	.zero	4
	.xword	0
	.xword	aead_aes_128_cbc_sha1_tls_init
	.xword	aead_tls_cleanup
	.xword	aead_tls_open
	.xword	aead_tls_seal_scatter
	.xword	0
	.xword	0
	.xword	aead_tls_tag_len
	.xword	0
	.xword	0
	.text
.Letext0:
	.file 4 "/usr/lib/gcc/aarch64-linux-gnu/12/include/stddef.h"
	.file 5 "/usr/include/aarch64-linux-gnu/bits/types.h"
	.file 6 "/usr/include/aarch64-linux-gnu/bits/stdint-intn.h"
	.file 7 "/usr/include/aarch64-linux-gnu/bits/stdint-uintn.h"
	.file 8 "/aws-lc/include/openssl/bytestring.h"
	.file 9 "/aws-lc/include/openssl/base.h"
	.file 10 "/aws-lc/crypto/cipher_extra/../fipsmodule/cipher/internal.h"
	.file 11 "/aws-lc/include/openssl/aead.h"
	.file 12 "/aws-lc/include/openssl/cipher.h"
	.file 13 "/aws-lc/include/openssl/hmac.h"
	.file 14 "/aws-lc/include/openssl/md5.h"
	.file 15 "/aws-lc/include/openssl/sha.h"
	.file 16 "/aws-lc/include/openssl/digest.h"
	.file 17 "/aws-lc/include/openssl/mem.h"
	.file 18 "/aws-lc/crypto/cipher_extra/internal.h"
	.file 19 "/usr/include/string.h"
	.file 20 "/aws-lc/include/openssl/err.h"
	.file 21 "/usr/include/assert.h"
	.file 22 "<built-in>"
	.section	.note.GNU-stack,"",@progbits
