	.arch armv8-a
	.file	"curve25519.c"
	.text
.Ltext0:
	.file 1 "/usr/local/cargo/registry/src/index.crates.io-1949cf8c6b5b557f/ring-0.17.13/crypto/curve25519/curve25519.c"
	.section	.text.fiat_25519_carry_mul,"ax",@progbits
	.align	2
	.p2align 4,,11
	.type	fiat_25519_carry_mul, %function
fiat_25519_carry_mul:
.LVL0:
.LFB26:
	.file 2 "/usr/local/cargo/registry/src/index.crates.io-1949cf8c6b5b557f/ring-0.17.13/crypto/curve25519/../../third_party/fiat/curve25519_64.h"
	.loc 2 133 180 view -0
	.cfi_startproc
	.loc 2 134 3 view .LVU1
	.loc 2 135 3 view .LVU2
	.loc 2 136 3 view .LVU3
	.loc 2 137 3 view .LVU4
	.loc 2 138 3 view .LVU5
	.loc 2 139 3 view .LVU6
	.loc 2 140 3 view .LVU7
	.loc 2 141 3 view .LVU8
	.loc 2 142 3 view .LVU9
	.loc 2 143 3 view .LVU10
	.loc 2 144 3 view .LVU11
	.loc 2 145 3 view .LVU12
	.loc 2 146 3 view .LVU13
	.loc 2 147 3 view .LVU14
	.loc 2 148 3 view .LVU15
	.loc 2 149 3 view .LVU16
	.loc 2 150 3 view .LVU17
	.loc 2 151 3 view .LVU18
	.loc 2 152 3 view .LVU19
	.loc 2 153 3 view .LVU20
	.loc 2 154 3 view .LVU21
	.loc 2 155 3 view .LVU22
	.loc 2 156 3 view .LVU23
	.loc 2 157 3 view .LVU24
	.loc 2 158 3 view .LVU25
	.loc 2 159 3 view .LVU26
	.loc 2 160 3 view .LVU27
	.loc 2 161 3 view .LVU28
	.loc 2 162 3 view .LVU29
	.loc 2 163 3 view .LVU30
	.loc 2 164 3 view .LVU31
	.loc 2 165 3 view .LVU32
	.loc 2 166 3 view .LVU33
	.loc 2 167 3 view .LVU34
	.loc 2 168 3 view .LVU35
	.loc 2 169 3 view .LVU36
	.loc 2 170 3 view .LVU37
	.loc 2 171 3 view .LVU38
	.loc 2 172 3 view .LVU39
	.loc 2 173 3 view .LVU40
	.loc 2 174 3 view .LVU41
	.loc 2 175 3 view .LVU42
	.loc 2 176 3 view .LVU43
	.loc 2 177 3 view .LVU44
	.loc 2 178 3 view .LVU45
	.loc 2 179 3 view .LVU46
	.loc 2 180 3 view .LVU47
	.loc 2 181 3 view .LVU48
	.loc 2 182 3 view .LVU49
	.loc 2 183 3 view .LVU50
	.loc 2 184 3 view .LVU51
	.loc 2 185 3 view .LVU52
	.loc 2 186 3 view .LVU53
	.loc 2 133 180 is_stmt 0 view .LVU54
	stp	x29, x30, [sp, -48]!
	.cfi_def_cfa_offset 48
	.cfi_offset 29, -48
	.cfi_offset 30, -40
	mov	x29, sp
	.loc 2 189 47 view .LVU55
	ldp	x15, x13, [x2]
	.loc 2 133 180 view .LVU56
	stp	x19, x20, [sp, 16]
	.loc 2 187 47 view .LVU57
	ldp	x17, x16, [x2, 16]
	.loc 2 186 47 view .LVU58
	ldr	x11, [x2, 32]
	.loc 2 189 52 view .LVU59
	add	x4, x13, x13, lsl 2
	.loc 2 190 34 view .LVU60
	ldp	x3, x12, [x1, 16]
	.loc 2 189 52 view .LVU61
	lsl	x4, x4, 2
	.loc 2 188 52 view .LVU62
	add	x8, x17, x17, lsl 2
	.loc 2 187 52 view .LVU63
	add	x6, x16, x16, lsl 2
	.loc 2 195 35 view .LVU64
	ldp	x9, x14, [x1]
	.loc 2 186 52 view .LVU65
	add	x7, x11, x11, lsl 2
	.loc 2 186 34 view .LVU66
	ldr	x10, [x1, 32]
	.loc 2 188 52 view .LVU67
	lsl	x8, x8, 2
	sub	x8, x8, x17
	.loc 2 189 52 view .LVU68
	sub	x4, x4, x13
	.loc 2 186 52 view .LVU69
	lsl	x7, x7, 2
	.loc 2 187 52 view .LVU70
	lsl	x6, x6, 2
	.loc 2 186 52 view .LVU71
	sub	x7, x7, x11
.LVL1:
	.loc 2 187 3 is_stmt 1 view .LVU72
	.loc 2 187 52 is_stmt 0 view .LVU73
	sub	x6, x6, x16
.LVL2:
	.loc 2 188 3 is_stmt 1 view .LVU74
	.loc 2 189 3 view .LVU75
	.loc 2 190 3 view .LVU76
	.loc 2 191 3 view .LVU77
	.loc 2 192 3 view .LVU78
	.loc 2 193 3 view .LVU79
	.loc 2 194 3 view .LVU80
	.loc 2 195 3 view .LVU81
	.loc 2 196 3 view .LVU82
	.loc 2 197 3 view .LVU83
	.loc 2 198 3 view .LVU84
	.loc 2 199 3 view .LVU85
	.loc 2 200 3 view .LVU86
	.loc 2 201 3 view .LVU87
	.loc 2 202 3 view .LVU88
	.loc 2 203 3 view .LVU89
	.loc 2 204 3 view .LVU90
	.loc 2 205 3 view .LVU91
	.loc 2 206 3 view .LVU92
	.loc 2 207 3 view .LVU93
	.loc 2 208 3 view .LVU94
	.loc 2 209 3 view .LVU95
	.loc 2 210 3 view .LVU96
	.loc 2 211 3 view .LVU97
	.loc 2 192 6 is_stmt 0 view .LVU98
	mul	x2, x8, x12
.LVL3:
	.loc 2 133 180 view .LVU99
	str	x21, [sp, 32]
	.cfi_offset 19, -32
	.cfi_offset 20, -24
	.cfi_offset 21, -16
	.loc 2 189 6 view .LVU100
	mul	x5, x4, x10
	.loc 2 192 6 view .LVU101
	umulh	x18, x8, x12
	.loc 2 189 6 view .LVU102
	umulh	x1, x4, x10
.LVL4:
	.loc 2 211 7 view .LVU103
	adds	x5, x5, x2
	.loc 2 195 7 view .LVU104
	mul	x4, x7, x14
	.loc 2 194 6 view .LVU105
	mul	x2, x6, x3
	.loc 2 211 7 view .LVU106
	adc	x1, x1, x18
	.loc 2 195 7 view .LVU107
	umulh	x19, x7, x14
	.loc 2 194 6 view .LVU108
	umulh	x18, x6, x3
	.loc 2 211 7 view .LVU109
	adds	x2, x2, x4
	.loc 2 210 7 view .LVU110
	mul	x20, x15, x9
	umulh	x21, x15, x9
	.loc 2 211 7 view .LVU111
	adc	x18, x18, x19
	.loc 2 193 6 view .LVU112
	mul	x4, x7, x3
	.loc 2 211 7 view .LVU113
	adds	x5, x5, x2
	.loc 2 205 7 view .LVU114
	mul	x19, x14, x15
	.loc 2 211 7 view .LVU115
	adc	x1, x1, x18
	adds	x5, x5, x20
	.loc 2 193 6 view .LVU116
	umulh	x18, x7, x3
	.loc 2 205 7 view .LVU117
	umulh	x20, x14, x15
	.loc 2 211 7 view .LVU118
	adc	x1, x1, x21
.LVL5:
	.loc 2 212 3 is_stmt 1 view .LVU119
	.loc 2 213 3 view .LVU120
	.loc 2 214 3 view .LVU121
	.loc 2 215 3 view .LVU122
	.loc 2 216 3 view .LVU123
	.loc 2 217 3 view .LVU124
	.loc 2 218 3 view .LVU125
	.loc 2 188 6 is_stmt 0 view .LVU126
	mul	x2, x10, x8
	.loc 2 218 7 view .LVU127
	adds	x4, x4, x19
	.loc 2 191 6 view .LVU128
	mul	x19, x6, x12
	.loc 2 218 7 view .LVU129
	adc	x18, x18, x20
	.loc 2 188 6 view .LVU130
	umulh	x8, x10, x8
.LVL6:
	.loc 2 212 24 view .LVU131
	extr	x1, x1, x5, 51
.LVL7:
	.loc 2 191 6 view .LVU132
	umulh	x20, x6, x12
	.loc 2 218 7 view .LVU133
	adds	x2, x2, x19
	.loc 2 209 7 view .LVU134
	mul	x21, x13, x9
.LVL8:
	.loc 2 213 7 view .LVU135
	and	x5, x5, 2251799813685247
.LVL9:
	.loc 2 209 7 view .LVU136
	umulh	x19, x13, x9
	.loc 2 218 7 view .LVU137
	adc	x8, x8, x20
	adds	x4, x4, x2
	.loc 2 204 7 view .LVU138
	mul	x20, x14, x13
	.loc 2 218 7 view .LVU139
	adc	x8, x18, x8
	.loc 2 201 7 view .LVU140
	mul	x2, x3, x15
	.loc 2 218 7 view .LVU141
	adds	x1, x1, x21
	.loc 2 187 6 view .LVU142
	mul	x30, x10, x6
	.loc 2 218 7 view .LVU143
	cinc	x18, x19, cs
	adds	x4, x4, x1
	.loc 2 190 6 view .LVU144
	mul	x19, x7, x12
	.loc 2 218 7 view .LVU145
	adc	x1, x8, x18
.LVL10:
	.loc 2 219 3 is_stmt 1 view .LVU146
	.loc 2 220 3 view .LVU147
	.loc 2 221 3 view .LVU148
	.loc 2 221 7 is_stmt 0 view .LVU149
	adds	x2, x2, x20
	.loc 2 201 7 view .LVU150
	umulh	x18, x3, x15
	.loc 2 204 7 view .LVU151
	umulh	x20, x14, x13
	.loc 2 219 24 view .LVU152
	extr	x1, x1, x4, 51
.LVL11:
	.loc 2 187 6 view .LVU153
	umulh	x6, x10, x6
.LVL12:
	.loc 2 220 7 view .LVU154
	and	x4, x4, 2251799813685247
.LVL13:
	.loc 2 190 6 view .LVU155
	umulh	x8, x7, x12
	.loc 2 221 7 view .LVU156
	adc	x18, x18, x20
	.loc 2 208 7 view .LVU157
	mul	x21, x17, x9
	.loc 2 221 7 view .LVU158
	adds	x30, x30, x19
	adc	x8, x6, x8
	.loc 2 208 7 view .LVU159
	umulh	x19, x17, x9
	.loc 2 221 7 view .LVU160
	adds	x2, x2, x30
	.loc 2 203 7 view .LVU161
	mul	x20, x14, x17
	.loc 2 200 7 view .LVU162
	mul	x6, x3, x13
	.loc 2 221 7 view .LVU163
	adc	x18, x18, x8
	adds	x1, x1, x21
	.loc 2 203 7 view .LVU164
	umulh	x21, x14, x17
	.loc 2 221 7 view .LVU165
	cinc	x8, x19, cs
	adds	x2, x2, x1
	.loc 2 200 7 view .LVU166
	umulh	x1, x3, x13
	.loc 2 221 7 view .LVU167
	adc	x18, x18, x8
.LVL14:
	.loc 2 222 3 is_stmt 1 view .LVU168
	.loc 2 223 3 view .LVU169
	.loc 2 224 3 view .LVU170
	.loc 2 198 7 is_stmt 0 view .LVU171
	mul	x19, x12, x15
	.loc 2 224 7 view .LVU172
	adds	x6, x6, x20
	.loc 2 186 6 view .LVU173
	mul	x30, x10, x7
	.loc 2 222 24 view .LVU174
	extr	x18, x18, x2, 51
.LVL15:
	.loc 2 186 6 view .LVU175
	umulh	x8, x10, x7
	.loc 2 224 7 view .LVU176
	adc	x7, x1, x21
.LVL16:
	.loc 2 198 7 view .LVU177
	umulh	x1, x12, x15
	.loc 2 224 7 view .LVU178
	adds	x30, x30, x19
	.loc 2 207 7 view .LVU179
	mul	x20, x16, x9
	.loc 2 223 7 view .LVU180
	and	x2, x2, 2251799813685247
.LVL17:
	.loc 2 207 7 view .LVU181
	umulh	x19, x16, x9
	.loc 2 224 7 view .LVU182
	adc	x1, x8, x1
	adds	x6, x6, x30
	.loc 2 199 7 view .LVU183
	mul	x8, x3, x17
	.loc 2 202 7 view .LVU184
	mul	x30, x14, x16
	.loc 2 224 7 view .LVU185
	adc	x7, x7, x1
	adds	x18, x18, x20
	.loc 2 199 7 view .LVU186
	umulh	x1, x3, x17
	.loc 2 202 7 view .LVU187
	umulh	x14, x14, x16
.LVL18:
	.loc 2 224 7 view .LVU188
	cinc	x3, x19, cs
.LVL19:
	.loc 2 196 7 view .LVU189
	mul	x16, x10, x15
.LVL20:
	.loc 2 224 7 view .LVU190
	adds	x6, x6, x18
	.loc 2 197 7 view .LVU191
	mul	x17, x12, x13
.LVL21:
	.loc 2 224 7 view .LVU192
	adc	x7, x7, x3
.LVL22:
	.loc 2 225 3 is_stmt 1 view .LVU193
	.loc 2 226 3 view .LVU194
	.loc 2 227 3 view .LVU195
	.loc 2 196 7 is_stmt 0 view .LVU196
	umulh	x10, x10, x15
.LVL23:
	.loc 2 227 7 view .LVU197
	adds	x3, x8, x30
	.loc 2 197 7 view .LVU198
	umulh	x12, x12, x13
.LVL24:
	.loc 2 227 7 view .LVU199
	adc	x1, x1, x14
	.loc 2 206 7 view .LVU200
	mul	x8, x9, x11
	.loc 2 227 7 view .LVU201
	adds	x16, x16, x17
	adc	x10, x10, x12
	.loc 2 206 7 view .LVU202
	umulh	x9, x9, x11
.LVL25:
	.loc 2 227 7 view .LVU203
	adds	x3, x3, x16
	.loc 2 225 24 view .LVU204
	extr	x7, x7, x6, 51
.LVL26:
	.loc 2 227 7 view .LVU205
	adc	x1, x1, x10
	adds	x7, x7, x8
	cinc	x9, x9, cs
	adds	x3, x3, x7
	adc	x1, x1, x9
.LVL27:
	.loc 2 228 3 is_stmt 1 view .LVU206
	.loc 2 229 3 view .LVU207
	.loc 2 230 3 view .LVU208
	.loc 2 231 3 view .LVU209
	.loc 2 229 7 is_stmt 0 view .LVU210
	and	x7, x3, 2251799813685247
.LVL28:
	.loc 2 243 1 view .LVU211
	ldp	x19, x20, [sp, 16]
	.loc 2 228 24 view .LVU212
	extr	x1, x1, x3, 51
.LVL29:
	.loc 2 243 1 view .LVU213
	ldr	x21, [sp, 32]
	.loc 2 230 7 view .LVU214
	add	x3, x1, x1, lsl 2
.LVL30:
	.loc 2 226 7 view .LVU215
	and	x6, x6, 2251799813685247
.LVL31:
	.loc 2 242 11 view .LVU216
	stp	x6, x7, [x0, 24]
.LVL32:
	.loc 2 230 7 view .LVU217
	lsl	x3, x3, 2
	sub	x1, x3, x1
	.loc 2 231 7 view .LVU218
	add	x1, x1, x5
.LVL33:
	.loc 2 232 3 is_stmt 1 view .LVU219
	.loc 2 233 3 view .LVU220
	.loc 2 234 3 view .LVU221
	.loc 2 233 7 is_stmt 0 view .LVU222
	and	x3, x1, 2251799813685247
.LVL34:
	.loc 2 238 11 view .LVU223
	str	x3, [x0]
	.loc 2 234 7 view .LVU224
	add	x1, x4, x1, lsr 51
.LVL35:
	.loc 2 235 3 is_stmt 1 view .LVU225
	.loc 2 236 3 view .LVU226
	.loc 2 237 3 view .LVU227
	.loc 2 238 3 view .LVU228
	.loc 2 239 3 view .LVU229
	.loc 2 236 7 is_stmt 0 view .LVU230
	and	x3, x1, 2251799813685247
.LVL36:
	.loc 2 243 1 view .LVU231
	ldp	x29, x30, [sp], 48
	.cfi_restore 30
	.cfi_restore 29
	.cfi_restore 21
	.cfi_restore 19
	.cfi_restore 20
	.cfi_def_cfa_offset 0
	.loc 2 237 7 view .LVU232
	add	x1, x2, x1, lsr 51
.LVL37:
	.loc 2 240 11 view .LVU233
	stp	x3, x1, [x0, 8]
	.loc 2 241 3 is_stmt 1 view .LVU234
	.loc 2 242 3 view .LVU235
	.loc 2 243 1 is_stmt 0 view .LVU236
	ret
	.cfi_endproc
.LFE26:
	.size	fiat_25519_carry_mul, .-fiat_25519_carry_mul
	.section	.text.fiat_25519_to_bytes,"ax",@progbits
	.align	2
	.p2align 4,,11
	.type	fiat_25519_to_bytes, %function
fiat_25519_to_bytes:
.LVL38:
.LFB32:
	.loc 2 483 117 is_stmt 1 view -0
	.cfi_startproc
	.loc 2 484 3 view .LVU238
	.loc 2 485 3 view .LVU239
	.loc 2 486 3 view .LVU240
	.loc 2 487 3 view .LVU241
	.loc 2 488 3 view .LVU242
	.loc 2 489 3 view .LVU243
	.loc 2 490 3 view .LVU244
	.loc 2 491 3 view .LVU245
	.loc 2 492 3 view .LVU246
	.loc 2 493 3 view .LVU247
	.loc 2 494 3 view .LVU248
	.loc 2 495 3 view .LVU249
	.loc 2 496 3 view .LVU250
	.loc 2 497 3 view .LVU251
	.loc 2 498 3 view .LVU252
	.loc 2 499 3 view .LVU253
	.loc 2 500 3 view .LVU254
	.loc 2 501 3 view .LVU255
	.loc 2 502 3 view .LVU256
	.loc 2 503 3 view .LVU257
	.loc 2 504 3 view .LVU258
	.loc 2 505 3 view .LVU259
	.loc 2 506 3 view .LVU260
	.loc 2 507 3 view .LVU261
	.loc 2 508 3 view .LVU262
	.loc 2 509 3 view .LVU263
	.loc 2 510 3 view .LVU264
	.loc 2 511 3 view .LVU265
	.loc 2 512 3 view .LVU266
	.loc 2 513 3 view .LVU267
	.loc 2 514 3 view .LVU268
	.loc 2 515 3 view .LVU269
	.loc 2 516 3 view .LVU270
	.loc 2 517 3 view .LVU271
	.loc 2 518 3 view .LVU272
	.loc 2 519 3 view .LVU273
	.loc 2 520 3 view .LVU274
	.loc 2 521 3 view .LVU275
	.loc 2 522 3 view .LVU276
	.loc 2 523 3 view .LVU277
	.loc 2 524 3 view .LVU278
	.loc 2 525 3 view .LVU279
	.loc 2 526 3 view .LVU280
	.loc 2 527 3 view .LVU281
	.loc 2 528 3 view .LVU282
	.loc 2 529 3 view .LVU283
	.loc 2 530 3 view .LVU284
	.loc 2 531 3 view .LVU285
	.loc 2 532 3 view .LVU286
	.loc 2 533 3 view .LVU287
	.loc 2 534 3 view .LVU288
	.loc 2 535 3 view .LVU289
	.loc 2 536 3 view .LVU290
	.loc 2 537 3 view .LVU291
	.loc 2 538 3 view .LVU292
	.loc 2 539 3 view .LVU293
	.loc 2 540 3 view .LVU294
	.loc 2 541 3 view .LVU295
	.loc 2 542 3 view .LVU296
	.loc 2 543 3 view .LVU297
	.loc 2 544 3 view .LVU298
	.loc 2 545 3 view .LVU299
	.loc 2 546 3 view .LVU300
	.loc 2 547 3 view .LVU301
	.loc 2 548 3 view .LVU302
	.loc 2 549 3 view .LVU303
	.loc 2 550 3 view .LVU304
	.loc 2 551 3 view .LVU305
	.loc 2 552 3 view .LVU306
	.loc 2 553 3 view .LVU307
	.loc 2 554 3 view .LVU308
	.loc 2 555 3 view .LVU309
	.loc 2 556 3 view .LVU310
	.loc 2 557 3 view .LVU311
	.loc 2 558 3 view .LVU312
	.loc 2 559 3 view .LVU313
	.loc 2 560 3 view .LVU314
	.loc 2 561 3 view .LVU315
	.loc 2 562 3 view .LVU316
	.loc 2 563 3 view .LVU317
	.loc 2 564 3 view .LVU318
	.loc 2 565 3 view .LVU319
	.loc 2 566 3 view .LVU320
	.loc 2 567 3 view .LVU321
	.loc 2 568 3 view .LVU322
	.loc 2 569 3 view .LVU323
	.loc 2 570 3 view .LVU324
	.loc 2 571 3 view .LVU325
	.loc 2 572 3 view .LVU326
	.loc 2 573 3 view .LVU327
	.loc 2 574 3 view .LVU328
	.loc 2 575 3 view .LVU329
.LBB1201:
.LBB1202:
	.loc 2 96 24 is_stmt 0 view .LVU330
	ldp	x4, x2, [x1]
.LBE1202:
.LBE1201:
.LBB1207:
.LBB1208:
	.loc 2 96 6 view .LVU331
	mov	x5, 19
	movk	x5, 0xfff8, lsl 48
.LVL39:
	.loc 2 96 6 view .LVU332
.LBE1208:
.LBI1207:
	.loc 2 92 36 is_stmt 1 view .LVU333
.LBB1209:
	.loc 2 93 3 view .LVU334
	.loc 2 94 3 view .LVU335
	.loc 2 95 3 view .LVU336
	.loc 2 96 3 view .LVU337
.LBE1209:
.LBE1207:
.LBB1212:
.LBB1203:
	.loc 2 96 6 is_stmt 0 view .LVU338
	mov	x7, -2251799813685247
.LBE1203:
.LBE1212:
.LBB1213:
.LBB1214:
	.loc 2 96 24 view .LVU339
	ldr	x6, [x1, 16]
.LBE1214:
.LBE1213:
	.loc 2 581 3 view .LVU340
	mov	x3, -19
	movk	x3, 0x7, lsl 48
.LBB1218:
.LBB1210:
	.loc 2 96 6 view .LVU341
	add	x4, x4, x5
.LVL40:
	.loc 2 97 3 is_stmt 1 view .LVU342
	.loc 2 98 3 view .LVU343
	.loc 2 99 3 view .LVU344
	.loc 2 100 3 view .LVU345
	.loc 2 100 3 is_stmt 0 view .LVU346
.LBE1210:
.LBE1218:
	.loc 2 576 3 is_stmt 1 view .LVU347
.LBB1219:
.LBI1201:
	.loc 2 92 36 view .LVU348
.LBB1204:
	.loc 2 93 3 view .LVU349
	.loc 2 94 3 view .LVU350
	.loc 2 95 3 view .LVU351
	.loc 2 96 3 view .LVU352
.LBE1204:
.LBE1219:
.LBB1220:
.LBB1211:
	.loc 2 98 6 is_stmt 0 view .LVU353
	and	x8, x4, 2251799813685247
.LVL41:
	.loc 2 97 29 view .LVU354
	asr	x9, x4, 51
	.loc 2 100 11 view .LVU355
	neg	w9, w9
.LBE1211:
.LBE1220:
.LBB1221:
.LBB1222:
	.loc 2 96 24 view .LVU356
	ldp	x5, x4, [x1, 24]
.LVL42:
	.loc 2 96 24 view .LVU357
.LBE1222:
.LBE1221:
.LBB1226:
.LBB1205:
	sub	x2, x2, w9, uxtb
.LVL43:
	.loc 2 96 6 view .LVU358
	add	x2, x2, x7
.LVL44:
	.loc 2 97 3 is_stmt 1 view .LVU359
	.loc 2 98 3 view .LVU360
	.loc 2 99 3 view .LVU361
	.loc 2 100 3 view .LVU362
	.loc 2 100 3 is_stmt 0 view .LVU363
.LBE1205:
.LBE1226:
	.loc 2 577 3 is_stmt 1 view .LVU364
.LBB1227:
.LBI1213:
	.loc 2 92 36 view .LVU365
.LBB1215:
	.loc 2 93 3 view .LVU366
	.loc 2 94 3 view .LVU367
	.loc 2 95 3 view .LVU368
	.loc 2 96 3 view .LVU369
.LBE1215:
.LBE1227:
.LBB1228:
.LBB1206:
	.loc 2 98 6 is_stmt 0 view .LVU370
	and	x1, x2, 2251799813685247
.LVL45:
	.loc 2 97 29 view .LVU371
	asr	x9, x2, 51
	.loc 2 100 11 view .LVU372
	neg	w9, w9
.LBE1206:
.LBE1228:
.LBB1229:
.LBB1216:
	.loc 2 96 24 view .LVU373
	sub	x6, x6, w9, uxtb
.LVL46:
	.loc 2 96 6 view .LVU374
	add	x6, x6, x7
.LVL47:
	.loc 2 97 3 is_stmt 1 view .LVU375
	.loc 2 98 3 view .LVU376
	.loc 2 99 3 view .LVU377
	.loc 2 100 3 view .LVU378
	.loc 2 100 3 is_stmt 0 view .LVU379
.LBE1216:
.LBE1229:
	.loc 2 578 3 is_stmt 1 view .LVU380
.LBB1230:
.LBI1230:
	.loc 2 92 36 view .LVU381
.LBB1231:
	.loc 2 93 3 view .LVU382
	.loc 2 94 3 view .LVU383
	.loc 2 95 3 view .LVU384
	.loc 2 96 3 view .LVU385
.LBE1231:
.LBE1230:
.LBB1234:
.LBB1217:
	.loc 2 98 6 is_stmt 0 view .LVU386
	and	x2, x6, 2251799813685247
.LVL48:
	.loc 2 97 29 view .LVU387
	asr	x6, x6, 51
.LVL49:
	.loc 2 100 11 view .LVU388
	neg	w6, w6
.LBE1217:
.LBE1234:
.LBB1235:
.LBB1232:
	.loc 2 96 24 view .LVU389
	sub	x5, x5, w6, uxtb
	.loc 2 96 6 view .LVU390
	add	x5, x5, x7
.LVL50:
	.loc 2 97 3 is_stmt 1 view .LVU391
	.loc 2 98 3 view .LVU392
	.loc 2 99 3 view .LVU393
	.loc 2 100 3 view .LVU394
	.loc 2 100 3 is_stmt 0 view .LVU395
.LBE1232:
.LBE1235:
	.loc 2 579 3 is_stmt 1 view .LVU396
.LBB1236:
.LBI1221:
	.loc 2 92 36 view .LVU397
.LBB1223:
	.loc 2 93 3 view .LVU398
	.loc 2 94 3 view .LVU399
	.loc 2 95 3 view .LVU400
	.loc 2 96 3 view .LVU401
.LBE1223:
.LBE1236:
.LBB1237:
.LBB1233:
	.loc 2 98 6 is_stmt 0 view .LVU402
	and	x6, x5, 2251799813685247
.LVL51:
	.loc 2 97 29 view .LVU403
	asr	x5, x5, 51
.LVL52:
	.loc 2 100 11 view .LVU404
	neg	w5, w5
.LBE1233:
.LBE1237:
.LBB1238:
.LBB1224:
	.loc 2 96 24 view .LVU405
	sub	x4, x4, w5, uxtb
	.loc 2 96 6 view .LVU406
	add	x4, x4, x7
.LVL53:
	.loc 2 97 3 is_stmt 1 view .LVU407
	.loc 2 98 3 view .LVU408
	.loc 2 99 3 view .LVU409
	.loc 2 100 3 view .LVU410
	.loc 2 100 3 is_stmt 0 view .LVU411
.LBE1224:
.LBE1238:
	.loc 2 580 3 is_stmt 1 view .LVU412
.LBB1239:
.LBI1239:
	.loc 2 116 36 view .LVU413
.LBB1240:
	.loc 2 117 3 view .LVU414
	.loc 2 118 3 view .LVU415
	.loc 2 119 3 view .LVU416
	.loc 2 120 3 view .LVU417
	.loc 2 121 3 view .LVU418
	.loc 2 122 3 view .LVU419
.LBB1241:
.LBI1241:
	.loc 2 42 28 view .LVU420
.LBB1242:
	.loc 2 43 3 view .LVU421
.LBE1242:
.LBE1241:
.LBE1240:
.LBE1239:
.LBB1246:
.LBB1225:
	.loc 2 98 6 is_stmt 0 view .LVU422
	and	x9, x4, 2251799813685247
.LVL54:
	.loc 2 97 29 view .LVU423
	asr	x4, x4, 51
.LVL55:
	.loc 2 100 11 view .LVU424
	neg	w4, w4
.LVL56:
	.loc 2 100 11 view .LVU425
.LBE1225:
.LBE1246:
.LBB1247:
.LBB1245:
	.loc 2 120 9 view .LVU426
	tst	w4, 255
	.loc 2 121 6 view .LVU427
	csetm	x4, ne
.LBB1244:
.LBB1243:
	.loc 2 43 3 view .LVU428
.LVL57:
	.loc 2 44 3 is_stmt 1 view .LVU429
	.loc 2 44 3 is_stmt 0 view .LVU430
.LBE1243:
.LBE1244:
	.loc 2 123 3 is_stmt 1 view .LVU431
	.loc 2 123 3 is_stmt 0 view .LVU432
.LBE1245:
.LBE1247:
	.loc 2 581 3 is_stmt 1 view .LVU433
.LBB1248:
.LBI1248:
	.loc 2 66 36 view .LVU434
.LBB1249:
	.loc 2 67 3 view .LVU435
	.loc 2 68 3 view .LVU436
	.loc 2 69 3 view .LVU437
	.loc 2 70 3 view .LVU438
.LBE1249:
.LBE1248:
	.loc 2 581 3 is_stmt 0 view .LVU439
	and	x3, x4, x3
	.loc 2 582 3 view .LVU440
	and	x4, x4, 2251799813685247
.LVL58:
.LBB1253:
.LBB1250:
	.loc 2 70 6 view .LVU441
	add	x3, x3, x8
.LVL59:
	.loc 2 71 3 is_stmt 1 view .LVU442
.LBE1250:
.LBE1253:
.LBB1254:
.LBB1255:
	.loc 2 70 6 is_stmt 0 view .LVU443
	add	x1, x1, x4
.LVL60:
	.loc 2 70 6 view .LVU444
.LBE1255:
.LBE1254:
.LBB1258:
.LBB1259:
	add	x2, x2, x4
.LVL61:
	.loc 2 70 6 view .LVU445
.LBE1259:
.LBE1258:
.LBB1262:
.LBB1251:
	.loc 2 71 6 view .LVU446
	and	x5, x3, 2251799813685247
.LVL62:
	.loc 2 71 6 view .LVU447
.LBE1251:
.LBE1262:
.LBB1263:
.LBB1256:
	.loc 2 70 6 view .LVU448
	add	x1, x1, x3, lsr 51
.LBE1256:
.LBE1263:
	.loc 2 591 7 view .LVU449
	ubfx	x7, x3, 8, 43
.LBB1264:
.LBB1252:
	.loc 2 71 6 view .LVU450
	fmov	d1, x5
.LVL63:
	.loc 2 72 3 is_stmt 1 view .LVU451
	.loc 2 73 3 view .LVU452
	.loc 2 74 3 view .LVU453
	.loc 2 74 3 is_stmt 0 view .LVU454
.LBE1252:
.LBE1264:
	.loc 2 582 3 is_stmt 1 view .LVU455
.LBB1265:
.LBI1254:
	.loc 2 66 36 view .LVU456
.LBB1257:
	.loc 2 67 3 view .LVU457
	.loc 2 68 3 view .LVU458
	.loc 2 69 3 view .LVU459
	.loc 2 70 3 view .LVU460
	.loc 2 71 3 view .LVU461
	.loc 2 72 3 view .LVU462
	.loc 2 73 3 view .LVU463
	.loc 2 74 3 view .LVU464
	.loc 2 74 3 is_stmt 0 view .LVU465
.LBE1257:
.LBE1265:
	.loc 2 583 3 is_stmt 1 view .LVU466
.LBB1266:
.LBI1258:
	.loc 2 66 36 view .LVU467
.LBB1260:
	.loc 2 67 3 view .LVU468
	.loc 2 68 3 view .LVU469
	.loc 2 69 3 view .LVU470
	.loc 2 70 3 view .LVU471
.LBE1260:
.LBE1266:
.LBB1267:
.LBB1268:
	.loc 2 70 6 is_stmt 0 view .LVU472
	add	x5, x6, x4
.LVL64:
	.loc 2 70 6 view .LVU473
.LBE1268:
.LBE1267:
.LBB1271:
.LBB1261:
	add	x2, x2, x1, lsr 51
.LVL65:
	.loc 2 71 3 is_stmt 1 view .LVU474
	.loc 2 72 3 view .LVU475
	.loc 2 73 3 view .LVU476
	.loc 2 74 3 view .LVU477
	.loc 2 74 3 is_stmt 0 view .LVU478
.LBE1261:
.LBE1271:
	.loc 2 584 3 is_stmt 1 view .LVU479
.LBB1272:
.LBI1267:
	.loc 2 66 36 view .LVU480
.LBB1269:
	.loc 2 67 3 view .LVU481
	.loc 2 68 3 view .LVU482
	.loc 2 69 3 view .LVU483
	.loc 2 70 3 view .LVU484
.LBE1269:
.LBE1272:
	.loc 2 589 7 is_stmt 0 view .LVU485
	ubfiz	x1, x1, 3, 51
.LVL66:
	.loc 2 656 11 view .LVU486
	ins	v1.b[1], w7
.LVL67:
	.loc 2 593 7 view .LVU487
	ubfx	x13, x3, 16, 35
	.loc 2 588 7 view .LVU488
	ubfiz	x6, x2, 6, 51
.LVL68:
.LBB1273:
.LBB1270:
	.loc 2 70 6 view .LVU489
	add	x2, x5, x2, lsr 51
.LVL69:
	.loc 2 71 3 is_stmt 1 view .LVU490
	.loc 2 72 3 view .LVU491
	.loc 2 73 3 view .LVU492
	.loc 2 74 3 view .LVU493
	.loc 2 74 3 is_stmt 0 view .LVU494
.LBE1270:
.LBE1273:
	.loc 2 585 3 is_stmt 1 view .LVU495
.LBB1274:
.LBI1274:
	.loc 2 66 36 view .LVU496
.LBB1275:
	.loc 2 67 3 view .LVU497
	.loc 2 68 3 view .LVU498
	.loc 2 69 3 view .LVU499
	.loc 2 70 3 view .LVU500
	.loc 2 71 3 view .LVU501
	.loc 2 72 3 view .LVU502
	.loc 2 73 3 view .LVU503
	.loc 2 74 3 view .LVU504
	.loc 2 74 3 is_stmt 0 view .LVU505
.LBE1275:
.LBE1274:
	.loc 2 586 3 is_stmt 1 view .LVU506
	.loc 2 587 3 view .LVU507
	.loc 2 588 3 view .LVU508
	.loc 2 589 3 view .LVU509
	.loc 2 590 3 view .LVU510
	.loc 2 591 3 view .LVU511
	.loc 2 592 3 view .LVU512
	.loc 2 593 3 view .LVU513
	.loc 2 594 3 view .LVU514
	.loc 2 595 3 view .LVU515
	.loc 2 596 3 view .LVU516
	.loc 2 597 3 view .LVU517
	.loc 2 598 3 view .LVU518
	.loc 2 599 3 view .LVU519
	.loc 2 600 3 view .LVU520
	.loc 2 601 3 view .LVU521
	.loc 2 602 3 view .LVU522
	.loc 2 615 7 is_stmt 0 view .LVU523
	add	x7, x6, x1, lsr 48
	.loc 2 625 7 view .LVU524
	fmov	d2, x7
	.loc 2 623 7 view .LVU525
	fmov	d0, x7
	.loc 2 587 7 view .LVU526
	ubfiz	x5, x2, 1, 51
	.loc 2 625 7 view .LVU527
	ushr	d4, d2, 40
	.loc 2 627 7 view .LVU528
	ushr	d2, d2, 48
	.loc 2 623 7 view .LVU529
	ushr	d0, d0, 32
	.loc 2 656 11 view .LVU530
	ins	v1.b[2], w13
	.loc 2 595 7 view .LVU531
	ubfx	x12, x3, 24, 27
	.loc 2 630 7 view .LVU532
	add	x10, x5, x6, lsr 56
	.loc 2 632 7 view .LVU533
	fmov	d3, x5
	.loc 2 597 7 view .LVU534
	ubfx	x11, x3, 32, 19
	.loc 2 599 7 view .LVU535
	ubfx	x8, x3, 40, 11
.LVL70:
	.loc 2 601 23 view .LVU536
	ubfx	x3, x3, 48, 3
.LVL71:
	.loc 2 656 11 view .LVU537
	ins	v0.b[1], v4.b[0]
	.loc 2 602 7 view .LVU538
	add	x3, x1, x3
.LVL72:
	.loc 2 603 3 is_stmt 1 view .LVU539
	.loc 2 604 3 view .LVU540
	.loc 2 605 3 view .LVU541
	.loc 2 606 3 view .LVU542
	.loc 2 607 3 view .LVU543
	.loc 2 608 3 view .LVU544
	.loc 2 609 3 view .LVU545
	.loc 2 610 3 view .LVU546
	.loc 2 611 3 view .LVU547
	.loc 2 612 3 view .LVU548
	.loc 2 613 3 view .LVU549
	.loc 2 614 3 view .LVU550
	.loc 2 615 3 view .LVU551
	.loc 2 616 3 view .LVU552
	.loc 2 617 3 view .LVU553
	.loc 2 618 3 view .LVU554
	.loc 2 619 3 view .LVU555
	.loc 2 620 3 view .LVU556
	.loc 2 621 3 view .LVU557
	.loc 2 622 3 view .LVU558
	.loc 2 623 3 view .LVU559
	.loc 2 624 3 view .LVU560
	.loc 2 625 3 view .LVU561
	.loc 2 626 3 view .LVU562
	.loc 2 627 3 view .LVU563
	.loc 2 628 3 view .LVU564
	.loc 2 629 3 view .LVU565
	.loc 2 630 3 view .LVU566
	.loc 2 631 3 view .LVU567
	.loc 2 632 3 view .LVU568
	.loc 2 633 3 view .LVU569
	.loc 2 634 3 view .LVU570
	.loc 2 635 3 view .LVU571
	.loc 2 636 3 view .LVU572
	.loc 2 637 3 view .LVU573
	.loc 2 638 3 view .LVU574
	.loc 2 639 3 view .LVU575
	.loc 2 640 3 view .LVU576
	.loc 2 641 3 view .LVU577
	.loc 2 642 3 view .LVU578
	.loc 2 643 3 view .LVU579
	.loc 2 632 7 is_stmt 0 view .LVU580
	ushr	d3, d3, 8
	.loc 2 656 11 view .LVU581
	ins	v1.b[3], w12
	.loc 2 634 7 view .LVU582
	fmov	d4, x5
.LVL73:
.LBB1277:
.LBB1276:
	.loc 2 70 6 view .LVU583
	add	x4, x9, x4
	add	x2, x4, x2, lsr 51
.LVL74:
	.loc 2 70 6 view .LVU584
.LBE1276:
.LBE1277:
	.loc 2 656 11 view .LVU585
	ins	v0.b[2], v2.b[0]
	.loc 2 634 7 view .LVU586
	ushr	d27, d4, 16
	.loc 2 656 11 view .LVU587
	ins	v1.b[4], w11
	.loc 2 636 7 view .LVU588
	ushr	d25, d4, 24
	.loc 2 604 7 view .LVU589
	fmov	d4, x1
	.loc 2 606 7 view .LVU590
	fmov	d2, x1
.LVL75:
	.loc 2 586 7 view .LVU591
	ubfiz	x2, x2, 4, 51
	.loc 2 656 11 view .LVU592
	ins	v0.b[3], w10
	.loc 2 604 7 view .LVU593
	ushr	d26, d4, 8
	.loc 2 656 11 view .LVU594
	ins	v1.b[5], w8
	.loc 2 638 7 view .LVU595
	fmov	d4, x5
	.loc 2 606 7 view .LVU596
	ushr	d24, d2, 16
	.loc 2 608 7 view .LVU597
	ushr	d22, d2, 24
	.loc 2 638 7 view .LVU598
	ushr	d23, d4, 32
	.loc 2 640 7 view .LVU599
	ushr	d21, d4, 40
	.loc 2 656 11 view .LVU600
	ins	v0.b[4], v3.b[0]
	.loc 2 643 7 view .LVU601
	add	x5, x2, x5, lsr 48
.LVL76:
	.loc 2 644 3 is_stmt 1 view .LVU602
	.loc 2 645 3 view .LVU603
	.loc 2 646 3 view .LVU604
	.loc 2 647 3 view .LVU605
	.loc 2 648 3 view .LVU606
	.loc 2 649 3 view .LVU607
	.loc 2 650 3 view .LVU608
	.loc 2 651 3 view .LVU609
	.loc 2 652 3 view .LVU610
	.loc 2 653 3 view .LVU611
	.loc 2 654 3 view .LVU612
	.loc 2 655 3 view .LVU613
	.loc 2 656 3 view .LVU614
	.loc 2 657 3 view .LVU615
	.loc 2 658 3 view .LVU616
	.loc 2 659 3 view .LVU617
	.loc 2 660 3 view .LVU618
	.loc 2 661 3 view .LVU619
	.loc 2 662 3 view .LVU620
	.loc 2 663 3 view .LVU621
	.loc 2 664 3 view .LVU622
	.loc 2 665 3 view .LVU623
	.loc 2 666 3 view .LVU624
	.loc 2 667 3 view .LVU625
	.loc 2 668 3 view .LVU626
	.loc 2 669 3 view .LVU627
	.loc 2 670 3 view .LVU628
	.loc 2 671 3 view .LVU629
	.loc 2 672 3 view .LVU630
	.loc 2 673 3 view .LVU631
	.loc 2 674 3 view .LVU632
	.loc 2 675 3 view .LVU633
	.loc 2 676 3 view .LVU634
	.loc 2 677 3 view .LVU635
	.loc 2 678 3 view .LVU636
	.loc 2 679 3 view .LVU637
	.loc 2 680 3 view .LVU638
	.loc 2 681 3 view .LVU639
	.loc 2 682 3 view .LVU640
	.loc 2 683 3 view .LVU641
	.loc 2 684 3 view .LVU642
	.loc 2 685 3 view .LVU643
	.loc 2 686 3 view .LVU644
	.loc 2 687 3 view .LVU645
	.loc 2 656 11 is_stmt 0 view .LVU646
	ins	v1.b[6], w3
	.loc 2 645 7 view .LVU647
	fmov	d4, x2
	.loc 2 610 7 view .LVU648
	ushr	d20, d2, 32
	.loc 2 612 7 view .LVU649
	ushr	d2, d2, 40
	.loc 2 645 7 view .LVU650
	ushr	d19, d4, 8
	.loc 2 647 7 view .LVU651
	ushr	d18, d4, 16
	.loc 2 656 11 view .LVU652
	ins	v0.b[5], v27.b[0]
	ins	v1.b[7], v26.b[0]
	.loc 2 649 7 view .LVU653
	ushr	d16, d4, 24
	.loc 2 617 7 view .LVU654
	fmov	d3, x6
	.loc 2 651 7 view .LVU655
	ushr	d6, d4, 32
	.loc 2 653 7 view .LVU656
	ushr	d5, d4, 40
	.loc 2 656 11 view .LVU657
	ins	v0.b[6], v25.b[0]
	ins	v1.b[8], v24.b[0]
	.loc 2 617 7 view .LVU658
	ushr	d17, d3, 8
	.loc 2 619 7 view .LVU659
	ushr	d7, d3, 16
	.loc 2 621 7 view .LVU660
	ushr	d4, d3, 24
	.loc 2 655 23 view .LVU661
	fmov	d3, x2
	.loc 2 656 11 view .LVU662
	ins	v0.b[7], v23.b[0]
	ins	v1.b[9], v22.b[0]
	.loc 2 655 23 view .LVU663
	ushr	d3, d3, 48
	.loc 2 656 11 view .LVU664
	ins	v0.b[8], v21.b[0]
	ins	v1.b[10], v20.b[0]
	ins	v0.b[9], w5
	ins	v1.b[11], v2.b[0]
	ins	v0.b[10], v19.b[0]
	ins	v1.b[12], w7
	ins	v0.b[11], v18.b[0]
	ins	v1.b[13], v17.b[0]
	ins	v0.b[12], v16.b[0]
	ins	v1.b[14], v7.b[0]
	ins	v0.b[13], v6.b[0]
	ins	v1.b[15], v4.b[0]
	ins	v0.b[14], v5.b[0]
	ins	v0.b[15], v3.b[0]
	stp	q1, q0, [x0]
.LVL77:
	.loc 2 688 1 view .LVU665
	ret
	.cfi_endproc
.LFE32:
	.size	fiat_25519_to_bytes, .-fiat_25519_to_bytes
	.section	.text.slide,"ax",@progbits
	.align	2
	.p2align 4,,11
	.type	slide, %function
slide:
.LVL78:
.LFB81:
	.loc 1 843 53 is_stmt 1 view -0
	.cfi_startproc
	.loc 1 844 3 view .LVU667
	.loc 1 845 3 view .LVU668
	.loc 1 846 3 view .LVU669
	.loc 1 848 3 view .LVU670
	.loc 1 848 17 view .LVU671
	.loc 1 843 53 is_stmt 0 view .LVU672
	mov	x2, 0
.LVL79:
	.p2align 3,,7
.L6:
	.loc 1 849 5 is_stmt 1 discriminator 3 view .LVU673
	.loc 1 849 21 is_stmt 0 discriminator 3 view .LVU674
	asr	w3, w2, 3
	.loc 1 849 33 discriminator 3 view .LVU675
	and	w4, w2, 7
	.loc 1 849 18 discriminator 3 view .LVU676
	ldrb	w3, [x1, w3, sxtw]
	.loc 1 849 27 discriminator 3 view .LVU677
	asr	w3, w3, w4
	.loc 1 849 14 discriminator 3 view .LVU678
	and	w3, w3, 1
	.loc 1 849 10 discriminator 3 view .LVU679
	strb	w3, [x0, x2]
	.loc 1 848 24 is_stmt 1 discriminator 3 view .LVU680
.LVL80:
	.loc 1 848 17 discriminator 3 view .LVU681
	add	x2, x2, 1
.LVL81:
	.loc 1 848 17 is_stmt 0 discriminator 3 view .LVU682
	cmp	x2, 256
	bne	.L6
	add	x2, x0, 1
	.loc 1 852 10 view .LVU683
	mov	w4, 0
	.loc 1 854 26 view .LVU684
	mov	w9, 257
	mov	w10, 255
	.loc 1 863 22 view .LVU685
	mov	w11, 1
.LVL82:
	.p2align 3,,7
.L9:
	.loc 1 853 5 is_stmt 1 view .LVU686
	.loc 1 853 8 is_stmt 0 view .LVU687
	ldrsb	w0, [x2, -1]
	.loc 1 854 31 view .LVU688
	add	w4, w4, 1
.LVL83:
	.loc 1 853 8 view .LVU689
	cbnz	w0, .L7
.L10:
	.loc 1 852 24 is_stmt 1 view .LVU690
.LVL84:
	.loc 1 852 17 view .LVU691
	add	x2, x2, 1
	cmp	w4, 256
	bne	.L9
	.loc 1 875 1 is_stmt 0 view .LVU692
	ret
.LVL85:
	.p2align 2,,3
.L7:
	.loc 1 854 26 is_stmt 1 view .LVU693
	cmp	w4, 256
	beq	.L10
	.loc 1 854 26 is_stmt 0 view .LVU694
	mov	x3, x2
	mov	w6, w4
	sub	w8, w9, w4
	.loc 1 854 14 view .LVU695
	mov	w1, 1
	b	.L18
.LVL86:
	.p2align 2,,3
.L32:
	.loc 1 854 26 discriminator 3 view .LVU696
	add	w6, w6, 1
	add	x3, x3, 1
	cmp	w8, w1
	beq	.L14
.LVL87:
.L18:
	.loc 1 855 9 is_stmt 1 view .LVU697
	.loc 1 855 14 is_stmt 0 view .LVU698
	ldrsb	w0, [x3]
	.loc 1 855 12 view .LVU699
	cbz	w0, .L12
	.loc 1 856 11 is_stmt 1 view .LVU700
	.loc 1 856 16 is_stmt 0 view .LVU701
	ldrsb	w5, [x2, -1]
	.loc 1 856 32 view .LVU702
	lsl	w0, w0, w1
	.loc 1 856 20 view .LVU703
	add	w7, w5, w0
	.loc 1 856 14 view .LVU704
	cmp	w7, 15
	bgt	.L13
	.loc 1 857 13 is_stmt 1 view .LVU705
	.loc 1 857 18 is_stmt 0 view .LVU706
	strb	w7, [x2, -1]
	.loc 1 858 13 is_stmt 1 view .LVU707
	.loc 1 858 22 is_stmt 0 view .LVU708
	strb	wzr, [x3]
.L12:
	.loc 1 854 42 is_stmt 1 discriminator 2 view .LVU709
	add	w1, w1, 1
.LVL88:
	.loc 1 854 26 discriminator 2 view .LVU710
	cmp	w1, 7
	bne	.L32
.L14:
	.loc 1 852 24 view .LVU711
.LVL89:
	.loc 1 852 17 view .LVU712
	add	x2, x2, 1
	.loc 1 852 17 is_stmt 0 view .LVU713
	b	.L9
.LVL90:
	.p2align 2,,3
.L13:
	.loc 1 859 18 is_stmt 1 view .LVU714
	.loc 1 859 27 is_stmt 0 view .LVU715
	sub	w5, w5, w0
	.loc 1 859 21 view .LVU716
	cmn	w5, #15
	blt	.L14
	.loc 1 860 13 is_stmt 1 view .LVU717
	.loc 1 860 18 is_stmt 0 view .LVU718
	strb	w5, [x2, -1]
	.loc 1 861 13 is_stmt 1 view .LVU719
.LVL91:
	.loc 1 861 31 view .LVU720
	cmp	w6, 256
	beq	.L12
	sub	w0, w10, w6
	add	x7, x3, 1
	add	x7, x7, x0
	mov	x0, x3
	b	.L17
.LVL92:
	.p2align 2,,3
.L16:
	.loc 1 866 20 is_stmt 0 discriminator 2 view .LVU721
	strb	wzr, [x0], 1
.LVL93:
	.loc 1 861 38 is_stmt 1 discriminator 2 view .LVU722
	.loc 1 861 31 discriminator 2 view .LVU723
	cmp	x7, x0
	beq	.L12
.LVL94:
.L17:
	.loc 1 862 15 view .LVU724
	.loc 1 866 15 view .LVU725
	.loc 1 862 18 is_stmt 0 view .LVU726
	ldrsb	w5, [x0]
	cbnz	w5, .L16
	.loc 1 863 17 is_stmt 1 view .LVU727
	.loc 1 863 22 is_stmt 0 view .LVU728
	strb	w11, [x0]
	.loc 1 864 17 is_stmt 1 view .LVU729
	b	.L12
	.cfi_endproc
.LFE81:
	.size	slide, .-slide
	.section	.text.x25519_ge_p3_to_cached,"ax",@progbits
	.align	2
	.p2align 4,,11
	.type	x25519_ge_p3_to_cached, %function
x25519_ge_p3_to_cached:
.LVL95:
.LFB69:
	.loc 1 555 66 view -0
	.cfi_startproc
	.loc 1 556 3 view .LVU731
.LBB1294:
.LBI1294:
	.loc 1 208 13 view .LVU732
	.loc 1 209 3 view .LVU733
	.loc 1 209 3 view .LVU734
	.loc 1 210 3 view .LVU735
	.loc 1 211 3 view .LVU736
.LBB1295:
.LBI1295:
	.loc 2 406 36 view .LVU737
.LBB1296:
	.loc 2 407 3 view .LVU738
	.loc 2 408 3 view .LVU739
	.loc 2 409 3 view .LVU740
	.loc 2 410 3 view .LVU741
	.loc 2 411 3 view .LVU742
	.loc 2 412 3 view .LVU743
.LBE1296:
.LBE1295:
.LBE1294:
	.loc 1 555 66 is_stmt 0 view .LVU744
	stp	x29, x30, [sp, -48]!
	.cfi_def_cfa_offset 48
	.cfi_offset 29, -48
	.cfi_offset 30, -40
.LBB1313:
.LBB1314:
.LBB1315:
	.loc 2 437 6 view .LVU745
	adrp	x2, .LC0
.LBE1315:
.LBE1314:
.LBE1313:
.LBB1340:
.LBB1341:
.LBB1342:
.LBB1343:
	.loc 2 189 6 view .LVU746
	mov	x6, 28686
.LBE1343:
.LBE1342:
.LBE1341:
.LBE1340:
	.loc 1 555 66 view .LVU747
	mov	x29, sp
.LBB1419:
.LBB1305:
.LBB1297:
	.loc 2 412 26 view .LVU748
	ldp	q3, q4, [x1]
.LBE1297:
.LBE1305:
.LBE1419:
	.loc 1 555 66 view .LVU749
	stp	x19, x20, [sp, 16]
.LBB1420:
.LBB1394:
.LBB1369:
.LBB1344:
	.loc 2 192 6 view .LVU750
	mov	x5, 34326
.LBE1344:
.LBE1369:
.LBE1394:
.LBE1420:
.LBB1421:
.LBB1306:
.LBB1298:
	.loc 2 412 14 view .LVU751
	ldr	q0, [x1, 40]
.LBE1298:
.LBE1306:
.LBE1421:
.LBB1422:
.LBB1395:
.LBB1370:
.LBB1345:
	.loc 2 189 6 view .LVU752
	movk	x6, 0xc52e, lsl 16
.LBE1345:
.LBE1370:
.LBE1395:
.LBE1422:
.LBB1423:
.LBB1307:
.LBB1299:
	.loc 2 412 14 view .LVU753
	ldr	q1, [x1, 56]
.LBE1299:
.LBE1307:
.LBE1423:
.LBB1424:
.LBB1396:
.LBB1371:
.LBB1346:
	.loc 2 192 6 view .LVU754
	movk	x5, 0x4042, lsl 16
.LBE1346:
.LBE1371:
.LBE1396:
.LBE1424:
.LBB1425:
.LBB1308:
.LBB1300:
	.loc 2 416 6 view .LVU755
	ldr	x7, [x1, 32]
.LBE1300:
.LBE1308:
.LBE1425:
.LBB1426:
.LBB1397:
.LBB1372:
.LBB1347:
	.loc 2 189 6 view .LVU756
	movk	x6, 0xf5f8, lsl 32
.LBE1347:
.LBE1372:
.LBE1397:
.LBE1426:
.LBB1427:
.LBB1309:
.LBB1301:
	.loc 2 416 6 view .LVU757
	ldr	x3, [x1, 72]
.LBE1301:
.LBE1309:
.LBE1427:
.LBB1428:
.LBB1398:
.LBB1373:
.LBB1348:
	.loc 2 192 6 view .LVU758
	movk	x5, 0x621a, lsl 32
.LBE1348:
.LBE1373:
.LBE1398:
.LBE1428:
.LBB1429:
.LBB1310:
.LBB1302:
	.loc 2 412 6 view .LVU759
	add	v1.2d, v1.2d, v4.2d
.LVL96:
	.loc 2 413 3 is_stmt 1 view .LVU760
	.loc 2 414 3 view .LVU761
	.loc 2 415 3 view .LVU762
	.loc 2 416 3 view .LVU763
.LBE1302:
.LBE1310:
.LBE1429:
.LBB1430:
.LBB1399:
.LBB1374:
.LBB1349:
	.loc 2 194 6 is_stmt 0 view .LVU764
	mov	x4, 981
.LBE1349:
.LBE1374:
.LBE1399:
.LBE1430:
.LBB1431:
.LBB1311:
.LBB1303:
	.loc 2 412 6 view .LVU765
	add	v0.2d, v0.2d, v3.2d
	.loc 2 416 6 view .LVU766
	add	x3, x3, x7
.LVL97:
	.loc 2 417 3 is_stmt 1 view .LVU767
	.loc 2 418 3 view .LVU768
	.loc 2 419 3 view .LVU769
	.loc 2 420 3 view .LVU770
	.loc 2 421 11 is_stmt 0 view .LVU771
	str	x3, [x0, 32]
.LVL98:
	.loc 2 421 11 view .LVU772
.LBE1303:
.LBE1311:
.LBE1431:
.LBB1432:
.LBB1328:
.LBB1316:
	.loc 2 437 6 view .LVU773
	adrp	x3, .LC1
.LVL99:
	.loc 2 437 6 view .LVU774
	ldr	q2, [x2, #:lo12:.LC0]
.LBE1316:
.LBE1328:
.LBE1432:
.LBB1433:
.LBB1400:
.LBB1375:
.LBB1350:
	.loc 2 195 7 view .LVU775
	mov	x2, 10733
.LBE1350:
.LBE1375:
.LBE1400:
.LBE1433:
.LBB1434:
.LBB1329:
.LBB1317:
	.loc 2 437 6 view .LVU776
	ldr	q5, [x3, #:lo12:.LC1]
.LBE1317:
.LBE1329:
.LBE1434:
.LBB1435:
.LBB1312:
.LBB1304:
	.loc 2 417 11 view .LVU777
	stp	q0, q1, [x0]
	.loc 2 421 3 is_stmt 1 view .LVU778
.LVL100:
	.loc 2 421 3 is_stmt 0 view .LVU779
.LBE1304:
.LBE1312:
	.loc 1 212 3 is_stmt 1 view .LVU780
	.loc 1 212 3 view .LVU781
	.loc 1 212 3 view .LVU782
	.loc 1 212 3 is_stmt 0 view .LVU783
.LBE1435:
	.loc 1 557 3 is_stmt 1 view .LVU784
.LBB1436:
.LBI1313:
	.loc 1 217 13 view .LVU785
	.loc 1 218 3 view .LVU786
	.loc 1 218 3 view .LVU787
	.loc 1 219 3 view .LVU788
	.loc 1 220 3 view .LVU789
.LBB1330:
.LBI1314:
	.loc 2 431 36 view .LVU790
.LBB1318:
	.loc 2 432 3 view .LVU791
	.loc 2 433 3 view .LVU792
	.loc 2 434 3 view .LVU793
	.loc 2 435 3 view .LVU794
	.loc 2 436 3 view .LVU795
	.loc 2 437 3 view .LVU796
	.loc 2 441 6 is_stmt 0 view .LVU797
	fmov	x8, d2
	.loc 2 437 43 view .LVU798
	ldr	q0, [x1, 40]
.LBE1318:
.LBE1330:
.LBE1436:
.LBB1437:
.LBB1401:
.LBB1376:
.LBB1351:
	.loc 2 192 6 view .LVU799
	movk	x5, 0x48, lsl 48
.LBE1351:
.LBE1376:
.LBE1401:
.LBE1437:
.LBB1438:
.LBB1331:
.LBB1319:
	.loc 2 437 43 view .LVU800
	ldr	q1, [x1, 56]
.LBE1319:
.LBE1331:
.LBE1438:
.LBB1439:
.LBB1402:
.LBB1377:
.LBB1352:
	.loc 2 189 6 view .LVU801
	movk	x6, 0x3e, lsl 48
.LBE1352:
.LBE1377:
.LBE1402:
.LBE1439:
.LBB1440:
.LBB1332:
.LBB1320:
	.loc 2 437 49 view .LVU802
	ldp	q3, q4, [x1]
.LBE1320:
.LBE1332:
.LBE1440:
.LBB1441:
.LBB1403:
.LBB1378:
.LBB1353:
	.loc 2 194 6 view .LVU803
	movk	x4, 0xc9c9, lsl 16
.LBE1353:
.LBE1378:
.LBE1403:
.LBE1441:
.LBB1442:
.LBB1333:
.LBB1321:
	.loc 2 437 6 view .LVU804
	add	v1.2d, v1.2d, v2.2d
.LBE1321:
.LBE1333:
.LBE1442:
.LBB1443:
.LBB1404:
.LBB1379:
.LBB1354:
	.loc 2 195 7 view .LVU805
	movk	x2, 0xb5a7, lsl 16
.LBE1354:
.LBE1379:
.LBE1404:
.LBE1443:
.LBB1444:
.LBB1334:
.LBB1322:
	.loc 2 437 6 view .LVU806
	add	v0.2d, v0.2d, v5.2d
.LBE1322:
.LBE1334:
.LBE1444:
.LBB1445:
.LBB1405:
.LBB1380:
.LBB1355:
	.loc 2 194 6 view .LVU807
	movk	x4, 0x9372, lsl 32
.LBE1355:
.LBE1380:
.LBE1405:
.LBE1445:
.LBB1446:
.LBB1335:
.LBB1323:
	.loc 2 441 6 view .LVU808
	ldr	x3, [x1, 72]
.LBE1323:
.LBE1335:
.LBE1446:
.LBB1447:
.LBB1406:
.LBB1381:
.LBB1356:
	.loc 2 195 7 view .LVU809
	movk	x2, 0xc822, lsl 32
.LBE1356:
.LBE1381:
.LBE1406:
.LBE1447:
.LBB1448:
.LBB1336:
.LBB1324:
	.loc 2 441 6 view .LVU810
	ldr	x7, [x1, 32]
	add	x3, x3, x8
	.loc 2 437 6 view .LVU811
	sub	v1.2d, v1.2d, v4.2d
.LVL101:
	.loc 2 438 3 is_stmt 1 view .LVU812
	.loc 2 439 3 view .LVU813
	.loc 2 440 3 view .LVU814
	.loc 2 441 3 view .LVU815
.LBE1324:
.LBE1336:
.LBE1448:
.LBB1449:
.LBB1407:
.LBB1382:
.LBB1357:
	.loc 2 210 7 is_stmt 0 view .LVU816
	mov	x13, 61785
.LBE1357:
.LBE1382:
.LBE1407:
.LBE1449:
.LBB1450:
.LBB1337:
.LBB1325:
	.loc 2 437 6 view .LVU817
	sub	v0.2d, v0.2d, v3.2d
	.loc 2 441 6 view .LVU818
	sub	x3, x3, x7
.LVL102:
	.loc 2 442 3 is_stmt 1 view .LVU819
	.loc 2 443 3 view .LVU820
	.loc 2 444 3 view .LVU821
	.loc 2 445 3 view .LVU822
	.loc 2 446 11 is_stmt 0 view .LVU823
	str	x3, [x0, 72]
.LVL103:
	.loc 2 446 11 view .LVU824
.LBE1325:
.LBE1337:
.LBE1450:
.LBB1451:
.LBB1408:
.LBB1383:
.LBB1358:
	.loc 2 195 7 view .LVU825
	movk	x2, 0x2a, lsl 48
	.loc 2 194 6 view .LVU826
	movk	x4, 0x7a, lsl 48
	.loc 2 210 7 view .LVU827
	movk	x13, 0x26b2, lsl 16
.LBE1358:
.LBE1383:
.LBE1408:
.LBE1451:
.LBB1452:
.LBB1338:
.LBB1326:
	.loc 2 442 11 view .LVU828
	str	q1, [x0, 56]
	.loc 2 446 3 is_stmt 1 view .LVU829
.LVL104:
	.loc 2 446 3 is_stmt 0 view .LVU830
.LBE1326:
.LBE1338:
	.loc 1 221 3 is_stmt 1 view .LVU831
	.loc 1 221 3 view .LVU832
	.loc 1 221 3 view .LVU833
	.loc 1 221 3 is_stmt 0 view .LVU834
.LBE1452:
	.loc 1 558 3 is_stmt 1 view .LVU835
.LBB1453:
.LBI1453:
	.loc 1 325 13 view .LVU836
	.loc 1 326 3 view .LVU837
	.loc 1 327 3 view .LVU838
.LBB1454:
.LBI1454:
	.file 3 "/usr/local/cargo/registry/src/index.crates.io-1949cf8c6b5b557f/ring-0.17.13/crypto/curve25519/internal.h"
	.loc 3 79 20 view .LVU839
	.loc 3 80 3 view .LVU840
.LBB1455:
	.loc 3 80 8 view .LVU841
	.loc 3 80 24 view .LVU842
	.loc 3 81 5 view .LVU843
.LBE1455:
.LBE1454:
.LBE1453:
.LBB1466:
.LBB1409:
.LBB1384:
.LBB1359:
	.loc 2 210 7 is_stmt 0 view .LVU844
	movk	x13, 0x9b94, lsl 32
	movk	x13, 0x6, lsl 48
.LBE1359:
.LBE1384:
.LBE1409:
.LBE1466:
.LBB1467:
.LBB1339:
.LBB1327:
	.loc 2 442 11 view .LVU845
	str	q0, [x0, 40]
.LBE1327:
.LBE1339:
.LBE1467:
.LBB1468:
.LBB1410:
.LBB1385:
.LBB1360:
	.loc 2 209 7 view .LVU846
	mov	x11, 56698
	movk	x11, 0x762a, lsl 16
.LBE1360:
.LBE1385:
.LBE1410:
.LBE1468:
.LBB1469:
.LBB1461:
.LBB1456:
	.loc 3 81 13 view .LVU847
	ldr	x3, [x1, 80]
	.loc 3 81 10 view .LVU848
	str	x3, [x0, 80]
	.loc 3 80 40 is_stmt 1 view .LVU849
.LVL105:
	.loc 3 80 24 view .LVU850
	.loc 3 81 5 view .LVU851
.LBE1456:
.LBE1461:
.LBE1469:
.LBB1470:
.LBB1411:
.LBB1386:
.LBB1361:
	.loc 2 209 7 is_stmt 0 view .LVU852
	movk	x11, 0x5050, lsl 32
	.loc 2 208 7 view .LVU853
	mov	x16, 32850
.LBE1361:
.LBE1386:
.LBE1411:
.LBE1470:
.LBB1471:
.LBB1462:
.LBB1457:
	.loc 3 81 13 view .LVU854
	ldr	x3, [x1, 88]
	.loc 3 81 10 view .LVU855
	str	x3, [x0, 88]
	.loc 3 80 40 is_stmt 1 view .LVU856
.LVL106:
	.loc 3 80 24 view .LVU857
	.loc 3 81 5 view .LVU858
.LBE1457:
.LBE1462:
.LBE1471:
.LBB1472:
.LBB1412:
.LBB1387:
.LBB1362:
	.loc 2 209 7 is_stmt 0 view .LVU859
	movk	x11, 0x3, lsl 48
	.loc 2 208 7 view .LVU860
	movk	x16, 0xc003, lsl 16
.LBE1362:
.LBE1387:
.LBE1412:
.LBE1472:
.LBB1473:
.LBB1463:
.LBB1458:
	.loc 3 81 13 view .LVU861
	ldr	x3, [x1, 96]
	.loc 3 81 10 view .LVU862
	str	x3, [x0, 96]
	.loc 3 80 40 is_stmt 1 view .LVU863
.LVL107:
	.loc 3 80 24 view .LVU864
	.loc 3 81 5 view .LVU865
.LBE1458:
.LBE1463:
.LBE1473:
	.loc 1 555 66 is_stmt 0 view .LVU866
	str	x21, [sp, 32]
	.cfi_offset 19, -32
	.cfi_offset 20, -24
	.cfi_offset 21, -16
.LBB1474:
.LBB1413:
.LBB1388:
.LBB1363:
	.loc 2 208 7 view .LVU867
	movk	x16, 0xcf44, lsl 32
.LBE1363:
.LBE1388:
.LBE1413:
.LBE1474:
.LBB1475:
.LBB1464:
.LBB1459:
	.loc 3 81 13 view .LVU868
	ldr	x3, [x1, 104]
	.loc 3 81 10 view .LVU869
	str	x3, [x0, 104]
	.loc 3 80 40 is_stmt 1 view .LVU870
.LVL108:
	.loc 3 80 24 view .LVU871
	.loc 3 81 5 view .LVU872
.LBE1459:
.LBE1464:
.LBE1475:
.LBB1476:
.LBB1414:
.LBB1389:
.LBB1364:
	.loc 2 208 7 is_stmt 0 view .LVU873
	movk	x16, 0x3, lsl 48
	.loc 2 207 7 view .LVU874
	mov	x15, 31095
.LBE1364:
.LBE1389:
.LBE1414:
.LBE1476:
.LBB1477:
.LBB1465:
.LBB1460:
	.loc 3 81 13 view .LVU875
	ldr	x3, [x1, 112]
	.loc 3 81 10 view .LVU876
	str	x3, [x0, 112]
	.loc 3 80 40 is_stmt 1 view .LVU877
.LVL109:
	.loc 3 80 24 view .LVU878
	.loc 3 80 24 is_stmt 0 view .LVU879
.LBE1460:
.LBE1465:
.LBE1477:
	.loc 1 559 3 is_stmt 1 view .LVU880
.LBB1478:
.LBI1340:
	.loc 1 239 13 view .LVU881
	.loc 1 240 3 view .LVU882
.LBB1415:
.LBI1341:
	.loc 1 230 13 view .LVU883
	.loc 1 233 3 view .LVU884
	.loc 1 233 3 view .LVU885
	.loc 1 234 3 view .LVU886
	.loc 1 235 3 view .LVU887
.LBB1390:
.LBI1342:
	.loc 2 133 36 view .LVU888
.LBB1365:
	.loc 2 134 3 view .LVU889
	.loc 2 135 3 view .LVU890
	.loc 2 136 3 view .LVU891
	.loc 2 137 3 view .LVU892
	.loc 2 138 3 view .LVU893
	.loc 2 139 3 view .LVU894
	.loc 2 140 3 view .LVU895
	.loc 2 141 3 view .LVU896
	.loc 2 142 3 view .LVU897
	.loc 2 143 3 view .LVU898
	.loc 2 144 3 view .LVU899
	.loc 2 145 3 view .LVU900
	.loc 2 146 3 view .LVU901
	.loc 2 147 3 view .LVU902
	.loc 2 148 3 view .LVU903
	.loc 2 149 3 view .LVU904
	.loc 2 150 3 view .LVU905
	.loc 2 151 3 view .LVU906
	.loc 2 152 3 view .LVU907
	.loc 2 153 3 view .LVU908
	.loc 2 154 3 view .LVU909
	.loc 2 155 3 view .LVU910
	.loc 2 156 3 view .LVU911
	.loc 2 157 3 view .LVU912
	.loc 2 158 3 view .LVU913
	.loc 2 159 3 view .LVU914
	.loc 2 160 3 view .LVU915
	.loc 2 161 3 view .LVU916
	.loc 2 162 3 view .LVU917
	.loc 2 163 3 view .LVU918
	.loc 2 164 3 view .LVU919
	.loc 2 165 3 view .LVU920
	.loc 2 166 3 view .LVU921
	.loc 2 167 3 view .LVU922
	.loc 2 168 3 view .LVU923
	.loc 2 169 3 view .LVU924
	.loc 2 170 3 view .LVU925
	.loc 2 171 3 view .LVU926
	.loc 2 172 3 view .LVU927
	.loc 2 173 3 view .LVU928
	.loc 2 174 3 view .LVU929
	.loc 2 175 3 view .LVU930
	.loc 2 176 3 view .LVU931
	.loc 2 177 3 view .LVU932
	.loc 2 178 3 view .LVU933
	.loc 2 179 3 view .LVU934
	.loc 2 180 3 view .LVU935
	.loc 2 181 3 view .LVU936
	.loc 2 182 3 view .LVU937
	.loc 2 183 3 view .LVU938
	.loc 2 184 3 view .LVU939
	.loc 2 185 3 view .LVU940
	.loc 2 186 3 view .LVU941
	.loc 2 207 7 is_stmt 0 view .LVU942
	movk	x15, 0xc740, lsl 16
	.loc 2 206 7 view .LVU943
	mov	x12, 28159
	.loc 2 190 34 view .LVU944
	ldp	x3, x10, [x1, 136]
	.loc 2 207 7 view .LVU945
	movk	x15, 0x738c, lsl 32
	.loc 2 195 35 view .LVU946
	ldp	x8, x14, [x1, 120]
	.loc 2 207 7 view .LVU947
	movk	x15, 0x6, lsl 48
	.loc 2 186 34 view .LVU948
	ldr	x9, [x1, 152]
.LVL110:
	.loc 2 187 3 is_stmt 1 view .LVU949
	.loc 2 188 3 view .LVU950
	.loc 2 189 3 view .LVU951
	.loc 2 190 3 view .LVU952
	.loc 2 191 3 view .LVU953
	.loc 2 192 3 view .LVU954
	.loc 2 193 3 view .LVU955
	.loc 2 194 3 view .LVU956
	.loc 2 195 3 view .LVU957
	.loc 2 196 3 view .LVU958
	.loc 2 197 3 view .LVU959
	.loc 2 198 3 view .LVU960
	.loc 2 199 3 view .LVU961
	.loc 2 200 3 view .LVU962
	.loc 2 201 3 view .LVU963
	.loc 2 202 3 view .LVU964
	.loc 2 203 3 view .LVU965
	.loc 2 204 3 view .LVU966
	.loc 2 205 3 view .LVU967
	.loc 2 206 3 view .LVU968
	.loc 2 207 3 view .LVU969
	.loc 2 208 3 view .LVU970
	.loc 2 209 3 view .LVU971
	.loc 2 210 3 view .LVU972
	.loc 2 211 3 view .LVU973
	.loc 2 206 7 is_stmt 0 view .LVU974
	movk	x12, 0x9dc5, lsl 16
	.loc 2 192 6 view .LVU975
	mul	x17, x10, x5
	.loc 2 206 7 view .LVU976
	movk	x12, 0x406d, lsl 32
	.loc 2 192 6 view .LVU977
	umulh	x18, x10, x5
	.loc 2 206 7 view .LVU978
	movk	x12, 0x2, lsl 48
	.loc 2 189 6 view .LVU979
	mul	x7, x9, x6
	umulh	x6, x9, x6
	.loc 2 211 7 view .LVU980
	adds	x7, x7, x17
	.loc 2 194 6 view .LVU981
	mul	x1, x3, x4
.LVL111:
	.loc 2 195 7 view .LVU982
	mul	x17, x14, x2
	.loc 2 211 7 view .LVU983
	adc	x6, x6, x18
	.loc 2 195 7 view .LVU984
	umulh	x19, x14, x2
	.loc 2 194 6 view .LVU985
	umulh	x18, x3, x4
	.loc 2 211 7 view .LVU986
	adds	x1, x1, x17
	.loc 2 210 7 view .LVU987
	mul	x30, x8, x13
	umulh	x21, x8, x13
	.loc 2 211 7 view .LVU988
	adc	x18, x18, x19
	.loc 2 188 6 view .LVU989
	mul	x17, x9, x5
	.loc 2 211 7 view .LVU990
	adds	x7, x7, x1
	.loc 2 191 6 view .LVU991
	mul	x19, x10, x4
	.loc 2 211 7 view .LVU992
	adc	x6, x6, x18
	.loc 2 191 6 view .LVU993
	umulh	x20, x10, x4
	.loc 2 211 7 view .LVU994
	adds	x7, x7, x30
	.loc 2 188 6 view .LVU995
	umulh	x1, x9, x5
	.loc 2 211 7 view .LVU996
	adc	x5, x6, x21
.LVL112:
	.loc 2 212 3 is_stmt 1 view .LVU997
	.loc 2 213 3 view .LVU998
	.loc 2 214 3 view .LVU999
	.loc 2 215 3 view .LVU1000
	.loc 2 216 3 view .LVU1001
	.loc 2 217 3 view .LVU1002
	.loc 2 218 3 view .LVU1003
	.loc 2 193 6 is_stmt 0 view .LVU1004
	mul	x18, x3, x2
	.loc 2 218 7 view .LVU1005
	adds	x6, x17, x19
	.loc 2 205 7 view .LVU1006
	mul	x17, x14, x13
	.loc 2 218 7 view .LVU1007
	adc	x1, x1, x20
	.loc 2 193 6 view .LVU1008
	umulh	x30, x3, x2
	.loc 2 212 24 view .LVU1009
	extr	x5, x5, x7, 51
.LVL113:
	.loc 2 205 7 view .LVU1010
	umulh	x20, x14, x13
	.loc 2 218 7 view .LVU1011
	adds	x18, x18, x17
	.loc 2 209 7 view .LVU1012
	mul	x19, x8, x11
	.loc 2 213 7 view .LVU1013
	and	x7, x7, 2251799813685247
.LVL114:
	.loc 2 218 7 view .LVU1014
	adc	x30, x30, x20
	.loc 2 209 7 view .LVU1015
	umulh	x17, x8, x11
	.loc 2 218 7 view .LVU1016
	adds	x6, x6, x18
	.loc 2 187 6 view .LVU1017
	mul	x18, x9, x4
	.loc 2 218 7 view .LVU1018
	adc	x1, x1, x30
	adds	x5, x5, x19
	.loc 2 190 6 view .LVU1019
	mul	x19, x10, x2
	.loc 2 218 7 view .LVU1020
	cinc	x17, x17, cs
	.loc 2 190 6 view .LVU1021
	umulh	x20, x10, x2
	.loc 2 218 7 view .LVU1022
	adds	x6, x6, x5
	.loc 2 187 6 view .LVU1023
	umulh	x4, x9, x4
	.loc 2 218 7 view .LVU1024
	adc	x1, x1, x17
.LVL115:
	.loc 2 219 3 is_stmt 1 view .LVU1025
	.loc 2 220 3 view .LVU1026
	.loc 2 221 3 view .LVU1027
	.loc 2 201 7 is_stmt 0 view .LVU1028
	mul	x5, x3, x13
	.loc 2 221 7 view .LVU1029
	adds	x18, x18, x19
	.loc 2 204 7 view .LVU1030
	mul	x19, x14, x11
	.loc 2 221 7 view .LVU1031
	adc	x4, x4, x20
	.loc 2 201 7 view .LVU1032
	umulh	x17, x3, x13
	.loc 2 219 24 view .LVU1033
	extr	x1, x1, x6, 51
.LVL116:
	.loc 2 204 7 view .LVU1034
	umulh	x20, x14, x11
	.loc 2 221 7 view .LVU1035
	adds	x5, x5, x19
	.loc 2 208 7 view .LVU1036
	mul	x19, x8, x16
	.loc 2 220 7 view .LVU1037
	and	x6, x6, 2251799813685247
.LVL117:
	.loc 2 221 7 view .LVU1038
	adc	x17, x17, x20
	.loc 2 208 7 view .LVU1039
	umulh	x30, x8, x16
	.loc 2 221 7 view .LVU1040
	adds	x18, x18, x5
	.loc 2 198 7 view .LVU1041
	umulh	x20, x10, x13
	.loc 2 221 7 view .LVU1042
	adc	x4, x4, x17
	adds	x5, x1, x19
	.loc 2 186 6 view .LVU1043
	mul	x17, x9, x2
	.loc 2 221 7 view .LVU1044
	cinc	x30, x30, cs
	.loc 2 198 7 view .LVU1045
	mul	x19, x10, x13
	.loc 2 221 7 view .LVU1046
	adds	x18, x18, x5
	.loc 2 186 6 view .LVU1047
	umulh	x1, x9, x2
	.loc 2 221 7 view .LVU1048
	adc	x2, x4, x30
.LVL118:
	.loc 2 222 3 is_stmt 1 view .LVU1049
	.loc 2 223 3 view .LVU1050
	.loc 2 224 3 view .LVU1051
	.loc 2 224 7 is_stmt 0 view .LVU1052
	adds	x5, x17, x19
	.loc 2 200 7 view .LVU1053
	mul	x4, x3, x11
	.loc 2 203 7 view .LVU1054
	mul	x17, x14, x16
	.loc 2 224 7 view .LVU1055
	adc	x1, x1, x20
	.loc 2 200 7 view .LVU1056
	umulh	x30, x3, x11
	.loc 2 222 24 view .LVU1057
	extr	x2, x2, x18, 51
.LVL119:
	.loc 2 203 7 view .LVU1058
	umulh	x20, x14, x16
	.loc 2 224 7 view .LVU1059
	adds	x17, x4, x17
	.loc 2 207 7 view .LVU1060
	mul	x19, x8, x15
	.loc 2 223 7 view .LVU1061
	and	x4, x18, 2251799813685247
.LVL120:
	.loc 2 224 7 view .LVU1062
	adc	x30, x30, x20
	.loc 2 207 7 view .LVU1063
	umulh	x18, x8, x15
	.loc 2 224 7 view .LVU1064
	adds	x5, x5, x17
	.loc 2 199 7 view .LVU1065
	mul	x17, x3, x16
	.loc 2 224 7 view .LVU1066
	adc	x1, x1, x30
	.loc 2 202 7 view .LVU1067
	mul	x30, x14, x15
	.loc 2 224 7 view .LVU1068
	adds	x2, x2, x19
	.loc 2 202 7 view .LVU1069
	umulh	x14, x14, x15
.LVL121:
	.loc 2 224 7 view .LVU1070
	cinc	x18, x18, cs
	.loc 2 196 7 view .LVU1071
	mul	x15, x9, x13
	.loc 2 224 7 view .LVU1072
	adds	x5, x5, x2
	.loc 2 199 7 view .LVU1073
	umulh	x3, x3, x16
.LVL122:
	.loc 2 197 7 view .LVU1074
	mul	x16, x10, x11
	.loc 2 224 7 view .LVU1075
	adc	x1, x1, x18
.LVL123:
	.loc 2 225 3 is_stmt 1 view .LVU1076
	.loc 2 226 3 view .LVU1077
	.loc 2 227 3 view .LVU1078
	.loc 2 197 7 is_stmt 0 view .LVU1079
	umulh	x10, x10, x11
.LVL124:
	.loc 2 227 7 view .LVU1080
	adds	x2, x17, x30
	.loc 2 196 7 view .LVU1081
	umulh	x9, x9, x13
.LVL125:
	.loc 2 227 7 view .LVU1082
	adc	x3, x3, x14
	.loc 2 206 7 view .LVU1083
	mul	x11, x8, x12
	.loc 2 227 7 view .LVU1084
	adds	x15, x15, x16
	adc	x9, x9, x10
	.loc 2 206 7 view .LVU1085
	umulh	x8, x8, x12
.LVL126:
	.loc 2 227 7 view .LVU1086
	adds	x2, x2, x15
	.loc 2 225 24 view .LVU1087
	extr	x1, x1, x5, 51
.LVL127:
	.loc 2 227 7 view .LVU1088
	adc	x3, x3, x9
	adds	x1, x1, x11
	cinc	x8, x8, cs
	adds	x2, x2, x1
	adc	x1, x3, x8
.LVL128:
	.loc 2 228 3 is_stmt 1 view .LVU1089
	.loc 2 229 3 view .LVU1090
	.loc 2 230 3 view .LVU1091
	.loc 2 231 3 view .LVU1092
	.loc 2 229 7 is_stmt 0 view .LVU1093
	and	x3, x2, 2251799813685247
.LVL129:
	.loc 2 229 7 view .LVU1094
.LBE1365:
.LBE1390:
.LBE1415:
.LBE1478:
	.loc 1 560 1 view .LVU1095
	ldp	x19, x20, [sp, 16]
.LBB1479:
.LBB1416:
.LBB1391:
.LBB1366:
	.loc 2 228 24 view .LVU1096
	extr	x1, x1, x2, 51
.LVL130:
	.loc 2 228 24 view .LVU1097
.LBE1366:
.LBE1391:
.LBE1416:
.LBE1479:
	.loc 1 560 1 view .LVU1098
	ldr	x21, [sp, 32]
.LBB1480:
.LBB1417:
.LBB1392:
.LBB1367:
	.loc 2 230 7 view .LVU1099
	add	x2, x1, x1, lsl 2
	.loc 2 226 7 view .LVU1100
	and	x5, x5, 2251799813685247
.LVL131:
	.loc 2 242 11 view .LVU1101
	stp	x5, x3, [x0, 144]
.LVL132:
	.loc 2 230 7 view .LVU1102
	lsl	x2, x2, 2
	sub	x1, x2, x1
	.loc 2 231 7 view .LVU1103
	add	x1, x1, x7
.LVL133:
	.loc 2 232 3 is_stmt 1 view .LVU1104
	.loc 2 233 3 view .LVU1105
	.loc 2 234 3 view .LVU1106
	.loc 2 233 7 is_stmt 0 view .LVU1107
	and	x2, x1, 2251799813685247
.LVL134:
	.loc 2 238 11 view .LVU1108
	str	x2, [x0, 120]
	.loc 2 234 7 view .LVU1109
	add	x1, x6, x1, lsr 51
.LVL135:
	.loc 2 235 3 is_stmt 1 view .LVU1110
	.loc 2 236 3 view .LVU1111
	.loc 2 237 3 view .LVU1112
	.loc 2 238 3 view .LVU1113
	.loc 2 239 3 view .LVU1114
	.loc 2 236 7 is_stmt 0 view .LVU1115
	and	x2, x1, 2251799813685247
.LVL136:
	.loc 2 236 7 view .LVU1116
.LBE1367:
.LBE1392:
.LBE1417:
.LBE1480:
	.loc 1 560 1 view .LVU1117
	ldp	x29, x30, [sp], 48
	.cfi_restore 30
	.cfi_restore 29
	.cfi_restore 21
	.cfi_restore 19
	.cfi_restore 20
	.cfi_def_cfa_offset 0
.LBB1481:
.LBB1418:
.LBB1393:
.LBB1368:
	.loc 2 237 7 view .LVU1118
	add	x1, x4, x1, lsr 51
.LVL137:
	.loc 2 240 11 view .LVU1119
	stp	x2, x1, [x0, 128]
	.loc 2 241 3 is_stmt 1 view .LVU1120
	.loc 2 242 3 view .LVU1121
.LVL138:
	.loc 2 242 3 is_stmt 0 view .LVU1122
.LBE1368:
.LBE1393:
	.loc 1 236 3 is_stmt 1 view .LVU1123
	.loc 1 236 3 view .LVU1124
	.loc 1 236 3 view .LVU1125
	.loc 1 236 3 is_stmt 0 view .LVU1126
.LBE1418:
.LBE1481:
	.loc 1 560 1 view .LVU1127
	ret
	.cfi_endproc
.LFE69:
	.size	x25519_ge_p3_to_cached, .-x25519_ge_p3_to_cached
	.section	.text.table_select,"ax",@progbits
	.align	2
	.p2align 4,,11
	.type	table_select, %function
table_select:
.LVL139:
.LFB79:
	.loc 1 742 77 is_stmt 1 view -0
	.cfi_startproc
	.loc 1 743 3 view .LVU1129
	.loc 1 742 77 is_stmt 0 view .LVU1130
	sxtb	w4, w2
.LBB1550:
.LBB1551:
	.file 4 "/usr/local/cargo/registry/src/index.crates.io-1949cf8c6b5b557f/ring-0.17.13/crypto/curve25519/../internal.h"
	.loc 4 185 13 view .LVU1131
	sbfx	x10, x2, 7, 1
.LBE1551:
.LBE1550:
	.loc 1 744 34 view .LVU1132
	and	w3, w4, w10
	.loc 1 742 77 view .LVU1133
	sub	sp, sp, #640
	.cfi_def_cfa_offset 640
.LBB1553:
.LBB1554:
.LBB1555:
	.loc 4 270 9 view .LVU1134
	mov	x12, 0
	mov	x11, 0
.LBE1555:
.LBE1554:
.LBE1553:
	.loc 1 744 11 view .LVU1135
	sub	w3, w4, w3, lsl 1
	mov	w13, 768
	and	w3, w3, 255
	.loc 1 742 77 view .LVU1136
	stp	x29, x30, [sp]
.LBB2038:
.LBB1801:
.LBB1802:
	.loc 4 211 10 view .LVU1137
	eor	w5, w3, 1
	and	x5, x5, 255
	eor	w4, w3, 2
.LBB1803:
.LBB1804:
	.loc 4 201 38 view .LVU1138
	sub	x7, x5, #1
.LBE1804:
.LBE1803:
	.loc 4 211 10 view .LVU1139
	and	x4, x4, 255
.LBB1859:
.LBB1833:
	.loc 4 201 10 view .LVU1140
	bic	x5, x7, x5
	.cfi_offset 29, -640
	.cfi_offset 30, -632
.LBE1833:
.LBE1859:
.LBE1802:
.LBE1801:
.LBE2038:
	.loc 1 742 77 view .LVU1141
	mov	x29, sp
.LBB2039:
.LBB1920:
.LBB1885:
.LBB1860:
.LBB1834:
	.loc 4 201 38 view .LVU1142
	sub	x6, x4, #1
.LBE1834:
.LBE1860:
.LBE1885:
.LBE1920:
.LBE2039:
	.loc 1 742 77 view .LVU1143
.LBB2040:
.LBB1921:
.LBB1886:
.LBB1861:
.LBB1835:
.LBB1805:
.LBB1806:
	.loc 4 185 13 view .LVU1144
	asr	x5, x5, 63
.LBE1806:
.LBE1805:
	.loc 4 201 10 view .LVU1145
	bic	x8, x6, x4
.LBE1835:
.LBE1861:
.LBE1886:
.LBE1921:
.LBB1922:
.LBB1718:
	.loc 4 270 18 view .LVU1146
	and	w5, w5, 255
.LBE1718:
.LBE1922:
.LBB1923:
.LBB1887:
	.loc 4 211 10 view .LVU1147
	eor	w4, w3, 3
.LBE1887:
.LBE1923:
.LBE2040:
	.loc 1 742 77 view .LVU1148
	stp	x21, x22, [sp, 32]
	.cfi_offset 21, -608
	.cfi_offset 22, -600
.LBB2041:
.LBB1924:
.LBB1719:
	.loc 4 270 9 view .LVU1149
	mov	x22, 0
	mov	x21, 0
.LBE1719:
.LBE1924:
.LBB1925:
.LBB1888:
	.loc 4 211 10 view .LVU1150
	and	x4, x4, 255
.LBE1888:
.LBE1925:
.LBB1926:
.LBB1720:
	.loc 4 270 9 view .LVU1151
	bfi	x12, x5, 0, 8
	bfi	x22, x5, 0, 8
	bfi	x21, x5, 0, 8
	bfi	x11, x5, 0, 8
.LBE1720:
.LBE1926:
.LBB1927:
.LBB1889:
.LBB1862:
.LBB1836:
	.loc 4 201 38 view .LVU1152
	sub	x6, x4, #1
	.loc 4 201 10 view .LVU1153
	bic	x7, x6, x4
.LBE1836:
.LBE1862:
.LBE1889:
.LBE1927:
.LBB1928:
.LBB1721:
	.loc 4 270 9 view .LVU1154
	bfi	x12, x5, 8, 8
	bfi	x22, x5, 8, 8
	bfi	x21, x5, 8, 8
.LBE1721:
.LBE1928:
.LBB1929:
.LBB1890:
	.loc 4 211 10 view .LVU1155
	eor	w4, w3, 4
.LBE1890:
.LBE1929:
.LBB1930:
.LBB1722:
	.loc 4 270 9 view .LVU1156
	bfi	x11, x5, 8, 8
.LBE1722:
.LBE1930:
.LBB1931:
.LBB1891:
	.loc 4 211 10 view .LVU1157
	and	x4, x4, 255
.LBE1891:
.LBE1931:
.LBB1932:
.LBB1723:
	.loc 4 270 9 view .LVU1158
	bfi	x12, x5, 16, 8
	bfi	x22, x5, 16, 8
	bfi	x21, x5, 16, 8
.LBE1723:
.LBE1932:
.LBB1933:
.LBB1892:
.LBB1863:
.LBB1837:
	.loc 4 201 38 view .LVU1159
	sub	x6, x4, #1
.LBE1837:
.LBE1863:
.LBE1892:
.LBE1933:
.LBB1934:
.LBB1724:
	.loc 4 270 9 view .LVU1160
	bfi	x11, x5, 16, 8
.LBE1724:
.LBE1934:
.LBB1935:
.LBB1893:
.LBB1864:
.LBB1838:
.LBB1820:
.LBB1807:
	.loc 4 185 13 view .LVU1161
	asr	x8, x8, 63
	asr	x7, x7, 63
.LBE1807:
.LBE1820:
.LBE1838:
.LBE1864:
.LBE1893:
.LBE1935:
.LBB1936:
.LBB1725:
	.loc 4 270 18 view .LVU1162
	and	w8, w8, 255
	and	w7, w7, 255
.LBE1725:
.LBE1936:
.LBB1937:
.LBB1894:
.LBB1865:
.LBB1839:
	.loc 4 201 10 view .LVU1163
	bic	x6, x6, x4
.LBE1839:
.LBE1865:
	.loc 4 211 10 view .LVU1164
	mov	w4, 5
	eor	w4, w3, w4
.LBE1894:
.LBE1937:
.LBB1938:
.LBB1726:
	.loc 4 270 9 view .LVU1165
	bfi	x12, x5, 24, 8
.LBE1726:
.LBE1938:
.LBB1939:
.LBB1895:
	.loc 4 211 10 view .LVU1166
	and	x4, x4, 255
.LBE1895:
.LBE1939:
.LBB1940:
.LBB1727:
	.loc 4 270 9 view .LVU1167
	bfi	x22, x5, 24, 8
	bfi	x21, x5, 24, 8
	bfi	x11, x5, 24, 8
	mov	x30, 0
	mov	x17, 0
	mov	x16, 0
	mov	x15, 0
.LBE1727:
.LBE1940:
.LBE2041:
	.loc 1 742 77 view .LVU1168
	stp	x19, x20, [sp, 16]
	.cfi_offset 19, -624
	.cfi_offset 20, -616
.LBB2042:
.LBB1941:
.LBB1728:
	.loc 4 270 9 view .LVU1169
	mov	x20, 0
	mov	x19, 0
	smull	x9, w1, w13
	bfi	x20, x8, 0, 8
	bfi	x19, x8, 0, 8
	bfi	x30, x8, 0, 8
	bfi	x17, x8, 0, 8
	bfi	x16, x7, 0, 8
	bfi	x15, x7, 0, 8
.LBE1728:
.LBE1941:
.LBB1942:
.LBB1896:
.LBB1866:
.LBB1840:
	.loc 4 201 38 view .LVU1170
	sub	x1, x4, #1
.LVL140:
	.loc 4 201 38 view .LVU1171
.LBE1840:
.LBE1866:
.LBE1896:
.LBE1942:
.LBB1943:
.LBB1729:
	.loc 4 270 9 view .LVU1172
	bfi	x12, x5, 32, 8
	bfi	x22, x5, 32, 8
	bfi	x21, x5, 32, 8
	bfi	x11, x5, 32, 8
.LBE1729:
.LBE1943:
.LBB1944:
.LBB1897:
.LBB1867:
.LBB1841:
	.loc 4 201 10 view .LVU1173
	bic	x1, x1, x4
.LBE1841:
.LBE1867:
.LBE1897:
.LBE1944:
.LBB1945:
.LBB1730:
	.loc 4 270 9 view .LVU1174
	bfi	x20, x8, 8, 8
	bfi	x19, x8, 8, 8
	bfi	x30, x8, 8, 8
	bfi	x17, x8, 8, 8
	bfi	x16, x7, 8, 8
	bfi	x15, x7, 8, 8
	mov	x18, 0
	mov	x14, 0
	bfi	x18, x7, 0, 8
	bfi	x12, x5, 40, 8
	bfi	x22, x5, 40, 8
	bfi	x21, x5, 40, 8
	bfi	x14, x7, 0, 8
	bfi	x11, x5, 40, 8
.LBE1730:
.LBE1945:
.LBB1946:
.LBB1898:
.LBB1868:
.LBB1842:
.LBB1821:
.LBB1808:
	.loc 4 185 13 view .LVU1175
	asr	x1, x1, 63
.LBE1808:
.LBE1821:
.LBE1842:
.LBE1868:
.LBE1898:
.LBE1946:
.LBB1947:
.LBB1731:
	.loc 4 270 9 view .LVU1176
	bfi	x20, x8, 16, 8
	bfi	x19, x8, 16, 8
	bfi	x30, x8, 16, 8
	bfi	x17, x8, 16, 8
	bfi	x16, x7, 16, 8
	bfi	x15, x7, 16, 8
	.loc 4 270 18 view .LVU1177
	and	w1, w1, 255
	.loc 4 270 9 view .LVU1178
	bfi	x18, x7, 8, 8
	mov	x4, x1
	bfi	x12, x5, 48, 8
	bfi	x22, x5, 48, 8
	bfi	x14, x7, 8, 8
	bfi	x21, x5, 48, 8
	bfi	x11, x5, 48, 8
.LBE1731:
.LBE1947:
.LBB1948:
.LBB1899:
	.loc 4 211 10 view .LVU1179
	eor	w1, w3, 6
.LBE1899:
.LBE1948:
.LBB1949:
.LBB1732:
	.loc 4 270 9 view .LVU1180
	bfi	x20, x8, 24, 8
	bfi	x19, x8, 24, 8
	bfi	x30, x8, 24, 8
	bfi	x17, x8, 24, 8
	bfi	x16, x7, 24, 8
	bfi	x15, x7, 24, 8
.LBE1732:
.LBE1949:
.LBB1950:
.LBB1900:
	.loc 4 211 10 view .LVU1181
	and	x1, x1, 255
.LBE1900:
.LBE1950:
.LBB1951:
.LBB1733:
	.loc 4 270 9 view .LVU1182
	bfi	x12, x5, 56, 8
	bfi	x22, x5, 56, 8
	bfi	x21, x5, 56, 8
	bfi	x11, x5, 56, 8
.LBE1733:
.LBE1951:
.LBE2042:
	.loc 1 743 23 view .LVU1183
	sxtb	x2, w2
.LVL141:
.LBB2043:
.LBI1550:
	.loc 4 184 29 is_stmt 1 view .LVU1184
.LBB1552:
	.loc 4 185 3 view .LVU1185
	.loc 4 185 3 is_stmt 0 view .LVU1186
.LBE1552:
.LBE2043:
	.loc 1 744 3 is_stmt 1 view .LVU1187
	.loc 1 746 3 view .LVU1188
.LBB2044:
.LBB1952:
.LBB1734:
	.loc 4 270 9 is_stmt 0 view .LVU1189
	bfi	x18, x7, 16, 8
	bfi	x14, x7, 16, 8
.LBE1734:
.LBE1952:
.LBB1953:
.LBB1901:
.LBB1869:
.LBB1843:
	.loc 4 201 38 view .LVU1190
	sub	x5, x1, #1
.LBE1843:
.LBE1869:
.LBE1901:
.LBE1953:
.LBB1954:
.LBB1735:
	.loc 4 270 9 view .LVU1191
	bfi	x20, x8, 32, 8
	bfi	x19, x8, 32, 8
	bfi	x30, x8, 32, 8
	bfi	x17, x8, 32, 8
	bfi	x16, x7, 32, 8
	bfi	x15, x7, 32, 8
.LBE1735:
.LBE1954:
.LBB1955:
.LBB1902:
.LBB1870:
.LBB1844:
	.loc 4 201 10 view .LVU1192
	bic	x1, x5, x1
.LBE1844:
.LBE1870:
.LBE1902:
.LBE1955:
.LBE2044:
.LBB2045:
.LBB2046:
	.loc 4 201 38 view .LVU1193
	sub	x5, x2, #1
.LBE2046:
.LBE2045:
	.loc 1 746 11 view .LVU1194
	movi	v0.4s, 0
.LBB2054:
.LBB2051:
	.loc 4 201 10 view .LVU1195
	bic	x2, x5, x2
.LVL142:
	.loc 4 201 10 view .LVU1196
.LBE2051:
.LBE2054:
.LBB2055:
.LBB1956:
.LBB1736:
	.loc 4 270 9 view .LVU1197
	bfi	x18, x7, 24, 8
	bfi	x14, x7, 24, 8
	bfi	x20, x8, 40, 8
	bfi	x19, x8, 40, 8
	bfi	x30, x8, 40, 8
	bfi	x17, x8, 40, 8
.LBE1736:
.LBE1956:
.LBB1957:
.LBB1903:
.LBB1871:
.LBB1845:
.LBB1822:
.LBB1809:
	.loc 4 185 13 view .LVU1198
	asr	x1, x1, 63
.LBE1809:
.LBE1822:
.LBE1845:
.LBE1871:
.LBE1903:
.LBE1957:
.LBB1958:
.LBB1737:
	.loc 4 270 9 view .LVU1199
	bfi	x16, x7, 40, 8
	bfi	x15, x7, 40, 8
.LBE1737:
.LBE1958:
.LBE2055:
	.loc 1 742 77 view .LVU1200
	stp	x23, x24, [sp, 48]
	.cfi_offset 23, -592
	.cfi_offset 24, -584
	.loc 1 746 11 view .LVU1201
	add	x24, sp, 417
.LBB2056:
.LBB1959:
.LBB1738:
	.loc 4 270 9 view .LVU1202
	stp	x12, x22, [sp, 224]
.LBE1738:
.LBE1959:
	.loc 1 753 65 view .LVU1203
	adrp	x22, ring_core_0_17_13__k25519Precomp
	add	x22, x22, :lo12:ring_core_0_17_13__k25519Precomp
.LBB1960:
.LBB1739:
	.loc 4 270 18 view .LVU1204
	and	w5, w1, 255
.LVL143:
	.loc 4 270 18 view .LVU1205
.LBE1739:
.LBE1960:
	.loc 1 753 65 view .LVU1206
	add	x23, x9, x22
.LBB1961:
.LBB1740:
	.loc 4 270 9 view .LVU1207
	bfi	x18, x7, 32, 8
.LBE1740:
.LBE1961:
.LBE2056:
.LBB2057:
.LBB2052:
.LBB2047:
.LBB2048:
	.loc 4 185 13 view .LVU1208
	asr	x1, x2, 63
.LBE2048:
.LBE2047:
.LBE2052:
.LBE2057:
.LBB2058:
.LBB1962:
.LBB1741:
	.loc 4 270 9 view .LVU1209
	bfi	x14, x7, 32, 8
.LBE1741:
.LBE1962:
.LBE2058:
	.loc 1 742 77 view .LVU1210
	stp	x25, x26, [sp, 64]
	.loc 1 747 35 view .LVU1211
	and	w1, w1, 1
.LBB2059:
.LBB1963:
.LBB1742:
	.loc 4 270 9 view .LVU1212
	bfi	x20, x8, 48, 8
	bfi	x19, x8, 48, 8
	bfi	x30, x8, 48, 8
	bfi	x17, x8, 48, 8
.LBE1742:
.LBE1963:
.LBB1964:
.LBB1904:
	.loc 4 211 10 view .LVU1213
	eor	w2, w3, 7
.LBE1904:
.LBE1964:
.LBB1965:
.LBB1743:
	.loc 4 270 9 view .LVU1214
	bfi	x16, x7, 48, 8
	bfi	x15, x7, 48, 8
.LBE1743:
.LBE1965:
.LBE2059:
	.loc 1 742 77 view .LVU1215
	stp	d8, d9, [sp, 80]
.LBB2060:
.LBB1966:
.LBB1744:
	.loc 4 270 9 view .LVU1216
	bfi	x18, x7, 40, 8
.LBE1744:
.LBE1966:
.LBE2060:
	.loc 1 742 77 view .LVU1217
	stp	d10, d11, [sp, 96]
.LBB2061:
.LBB1967:
.LBB1905:
	.loc 4 211 10 view .LVU1218
	eor	w3, w3, 8
.LVL144:
	.loc 4 211 10 view .LVU1219
	and	x2, x2, 255
.LBE1905:
.LBE1967:
.LBE2061:
	.loc 1 742 77 view .LVU1220
	str	d12, [sp, 112]
	.cfi_offset 25, -576
	.cfi_offset 26, -568
	.cfi_offset 72, -560
	.cfi_offset 73, -552
	.cfi_offset 74, -544
	.cfi_offset 75, -536
	.cfi_offset 76, -528
.LBB2062:
.LBB1968:
.LBB1745:
	.loc 4 270 9 view .LVU1221
	bfi	x14, x7, 40, 8
.LBE1745:
.LBE1968:
.LBE2062:
	.loc 1 746 11 view .LVU1222
	strb	w1, [sp, 416]
.LBB2063:
.LBB1969:
.LBB1746:
	.loc 4 270 9 view .LVU1223
	bfi	x20, x8, 56, 8
.LBE1746:
.LBE1969:
.LBE2063:
	.loc 1 746 11 view .LVU1224
	stp	q0, q0, [x24]
.LBB2064:
.LBB1970:
.LBB1747:
	.loc 4 270 9 view .LVU1225
	bfi	x19, x8, 56, 8
	bfi	x30, x8, 56, 8
.LBB1556:
	.loc 4 272 31 view .LVU1226
	ldr	q4, [x22, x9]
.LBE1556:
	.loc 4 270 9 view .LVU1227
	bfi	x17, x8, 56, 8
.LBB1557:
	.loc 4 272 31 view .LVU1228
	ldr	q2, [x23, 32]
.LBE1557:
	.loc 4 270 9 view .LVU1229
	bfi	x16, x7, 56, 8
.LBB1558:
	.loc 4 272 22 view .LVU1230
	ldr	q3, [sp, 416]
.LBE1558:
	.loc 4 270 9 view .LVU1231
	bfi	x15, x7, 56, 8
	stp	x20, x19, [sp, 192]
.LBE1747:
.LBE1970:
	.loc 1 753 65 view .LVU1232
	add	x25, x9, 96
.LBB1971:
.LBB1748:
	.loc 4 270 9 view .LVU1233
	bfi	x18, x7, 48, 8
	str	x30, [sp, 208]
	bfi	x14, x7, 48, 8
	stp	x21, x11, [sp, 240]
	bfi	x18, x7, 56, 8
	bfi	x14, x7, 56, 8
.LBE1748:
.LBE1971:
.LBE2064:
	.loc 1 746 11 view .LVU1234
	strb	w1, [sp, 448]
.LBB2065:
.LBB1972:
.LBB1906:
	.loc 4 211 10 view .LVU1235
	and	x1, x3, 255
.LBE1906:
.LBE1972:
.LBB1973:
.LBB1749:
.LBB1559:
	.loc 4 272 31 view .LVU1236
	ldr	q1, [sp, 224]
.LBE1559:
.LBE1749:
.LBE1973:
.LBB1974:
.LBB1907:
.LBB1872:
.LBB1846:
	.loc 4 201 38 view .LVU1237
	sub	x3, x2, #1
.LVL145:
	.loc 4 201 10 view .LVU1238
	bic	x2, x3, x2
.LBE1846:
.LBE1872:
.LBE1907:
.LBE1974:
	.loc 1 753 65 view .LVU1239
	add	x3, x9, 672
.LBE2065:
	.loc 1 746 11 view .LVU1240
	stp	q0, q0, [x24, 32]
.LVL146:
.LBB2066:
.LBI2045:
	.loc 4 189 29 is_stmt 1 view .LVU1241
.LBB2053:
	.loc 4 201 3 view .LVU1242
.LBB2050:
.LBI2047:
	.loc 4 184 29 view .LVU1243
.LBB2049:
	.loc 4 185 3 view .LVU1244
	.loc 4 185 3 is_stmt 0 view .LVU1245
.LBE2049:
.LBE2050:
.LBE2053:
.LBE2066:
	.loc 1 751 3 is_stmt 1 view .LVU1246
	.loc 1 752 3 view .LVU1247
.LBB2067:
	.loc 1 752 8 view .LVU1248
	.loc 1 752 21 view .LVU1249
	.loc 1 753 5 view .LVU1250
.LBB1975:
.LBI1801:
	.loc 4 209 29 view .LVU1251
.LBB1908:
	.loc 4 211 3 view .LVU1252
.LBB1873:
.LBI1803:
	.loc 4 189 29 view .LVU1253
.LBB1847:
	.loc 4 201 3 view .LVU1254
.LBB1823:
.LBI1805:
	.loc 4 184 29 view .LVU1255
.LBB1810:
	.loc 4 185 3 view .LVU1256
	.loc 4 185 3 is_stmt 0 view .LVU1257
.LBE1810:
.LBE1823:
.LBE1847:
.LBE1873:
.LBE1908:
.LBE1975:
.LBB1976:
.LBI1554:
	.loc 4 260 20 is_stmt 1 view .LVU1258
.LBB1750:
	.loc 4 263 3 view .LVU1259
	.loc 4 264 3 view .LVU1260
	.loc 4 265 3 view .LVU1261
	.loc 4 268 3 view .LVU1262
	.loc 4 269 3 view .LVU1263
	.loc 4 270 3 view .LVU1264
	.loc 4 271 3 view .LVU1265
.LBB1560:
	.loc 4 271 8 view .LVU1266
	.loc 4 271 24 view .LVU1267
	.loc 4 272 5 view .LVU1268
	.loc 4 271 35 view .LVU1269
	.loc 4 271 24 view .LVU1270
	.loc 4 272 5 view .LVU1271
	.loc 4 271 35 view .LVU1272
	.loc 4 271 24 view .LVU1273
	.loc 4 272 5 view .LVU1274
	.loc 4 271 35 view .LVU1275
	.loc 4 271 24 view .LVU1276
.LBE1560:
	.loc 4 274 3 view .LVU1277
	.loc 4 275 3 view .LVU1278
	.loc 4 277 3 view .LVU1279
.LBE1750:
	.loc 4 277 8 view .LVU1280
	.loc 4 277 24 view .LVU1281
	.loc 4 277 24 is_stmt 0 view .LVU1282
.LBE1976:
	.loc 1 752 21 is_stmt 1 view .LVU1283
	.loc 1 753 5 view .LVU1284
	.loc 1 753 65 is_stmt 0 view .LVU1285
	add	x24, x9, 192
	add	x7, x9, 576
.LBB1977:
.LBB1751:
	.loc 4 270 9 view .LVU1286
	stp	x16, x15, [sp, 160]
.LBE1751:
.LBE1977:
	.loc 1 753 65 view .LVU1287
	add	x16, x9, 384
	add	x15, x9, 480
.LBB1978:
.LBB1752:
	.loc 4 270 9 view .LVU1288
	str	x17, [sp, 216]
.LBE1752:
.LBE1978:
	.loc 1 753 65 view .LVU1289
	add	x17, x9, 288
.LBB1979:
.LBB1753:
.LBB1561:
	.loc 4 272 31 view .LVU1290
	ldr	q0, [sp, 224]
.LBE1561:
.LBE1753:
.LBE1979:
	.loc 1 753 65 view .LVU1291
	add	x9, x7, x22
.LBB1980:
.LBB1754:
.LBB1562:
	.loc 4 272 31 view .LVU1292
	ldr	q5, [x22, x15]
.LBE1562:
.LBE1754:
.LBE1980:
	.loc 1 753 65 view .LVU1293
	add	x15, x15, x22
.LBB1981:
.LBB1755:
.LBB1563:
	.loc 4 272 31 view .LVU1294
	ldr	q11, [x22, x24]
.LBE1563:
.LBE1755:
.LBE1981:
	.loc 1 753 65 view .LVU1295
	add	x24, x24, x22
.LBB1982:
.LBB1756:
.LBB1564:
	.loc 4 272 31 view .LVU1296
	ldr	q22, [x22, x3]
.LBE1564:
.LBE1756:
.LBE1982:
	.loc 1 753 65 view .LVU1297
	add	x3, x3, x22
.LBB1983:
.LBB1757:
.LBB1565:
	.loc 4 272 31 view .LVU1298
	ldr	q23, [x22, x17]
.LBE1565:
.LBE1757:
.LBE1983:
	.loc 1 753 65 view .LVU1299
	add	x17, x17, x22
.LBB1984:
.LBB1758:
.LBB1566:
	.loc 4 272 31 view .LVU1300
	ldr	q29, [x22, x16]
.LBE1566:
.LBE1758:
.LBE1984:
	.loc 1 753 65 view .LVU1301
	add	x16, x16, x22
.LBB1985:
.LBB1759:
.LBB1567:
	.loc 4 272 31 view .LVU1302
	and	v4.16b, v4.16b, v1.16b
.LBE1567:
	.loc 4 270 9 view .LVU1303
	str	x18, [sp, 176]
.LBB1568:
	.loc 4 272 31 view .LVU1304
	ldr	q1, [x22, x25]
.LBE1568:
.LBE1759:
.LBE1985:
	.loc 1 753 65 view .LVU1305
	add	x25, x25, x22
.LVL147:
.LBB1986:
	.loc 4 209 29 is_stmt 1 view .LVU1306
.LBB1909:
	.loc 4 211 3 view .LVU1307
.LBB1874:
	.loc 4 189 29 view .LVU1308
.LBB1848:
	.loc 4 201 3 view .LVU1309
.LBB1824:
	.loc 4 184 29 view .LVU1310
.LBB1811:
	.loc 4 185 3 view .LVU1311
	.loc 4 185 3 is_stmt 0 view .LVU1312
.LBE1811:
.LBE1824:
.LBE1848:
.LBE1874:
.LBE1909:
.LBE1986:
.LBB1987:
	.loc 4 260 20 is_stmt 1 view .LVU1313
.LBB1760:
	.loc 4 263 3 view .LVU1314
	.loc 4 264 3 view .LVU1315
	.loc 4 265 3 view .LVU1316
	.loc 4 268 3 view .LVU1317
	.loc 4 269 3 view .LVU1318
	.loc 4 270 3 view .LVU1319
	.loc 4 271 3 view .LVU1320
.LBB1569:
	.loc 4 271 8 view .LVU1321
	.loc 4 271 24 view .LVU1322
	.loc 4 272 5 view .LVU1323
	.loc 4 271 35 view .LVU1324
	.loc 4 271 24 view .LVU1325
	.loc 4 272 5 view .LVU1326
	.loc 4 271 35 view .LVU1327
	.loc 4 271 24 view .LVU1328
	.loc 4 272 5 view .LVU1329
	.loc 4 271 35 view .LVU1330
	.loc 4 271 24 view .LVU1331
.LBE1569:
	.loc 4 274 3 view .LVU1332
	.loc 4 275 3 view .LVU1333
	.loc 4 277 3 view .LVU1334
.LBE1760:
	.loc 4 277 8 view .LVU1335
	.loc 4 277 24 view .LVU1336
	.loc 4 277 24 is_stmt 0 view .LVU1337
.LBE1987:
	.loc 1 752 21 is_stmt 1 view .LVU1338
	.loc 1 753 5 view .LVU1339
.LBB1988:
	.loc 4 209 29 view .LVU1340
.LBB1910:
	.loc 4 211 3 view .LVU1341
.LBB1875:
	.loc 4 189 29 view .LVU1342
.LBB1849:
	.loc 4 201 3 view .LVU1343
.LBB1825:
	.loc 4 184 29 view .LVU1344
.LBB1812:
	.loc 4 185 3 view .LVU1345
	.loc 4 185 3 is_stmt 0 view .LVU1346
.LBE1812:
.LBE1825:
.LBE1849:
.LBE1875:
.LBE1910:
.LBE1988:
.LBB1989:
	.loc 4 260 20 is_stmt 1 view .LVU1347
.LBB1761:
	.loc 4 263 3 view .LVU1348
	.loc 4 264 3 view .LVU1349
	.loc 4 265 3 view .LVU1350
	.loc 4 268 3 view .LVU1351
	.loc 4 269 3 view .LVU1352
	.loc 4 270 3 view .LVU1353
.LBB1570:
	.loc 4 272 31 is_stmt 0 view .LVU1354
	ldr	q19, [x22, x7]
.LBE1570:
.LBE1761:
.LBE1989:
.LBB1990:
.LBB1911:
.LBB1876:
.LBB1850:
.LBB1826:
.LBB1813:
	.loc 4 185 13 view .LVU1355
	asr	x6, x6, 63
.LBE1813:
.LBE1826:
.LBE1850:
.LBE1876:
.LBE1911:
.LBE1990:
.LBB1991:
.LBB1762:
.LBB1571:
	.loc 4 272 31 view .LVU1356
	ldp	q21, q18, [x9, 16]
.LBE1571:
	.loc 4 270 18 view .LVU1357
	and	w6, w6, 255
.LBB1572:
	.loc 4 272 31 view .LVU1358
	ldp	q17, q31, [x15, 16]
.LBE1572:
	.loc 4 270 9 view .LVU1359
	mov	x13, 0
.LBB1573:
	.loc 4 272 31 view .LVU1360
	ldr	q28, [x23, 16]
.LBE1573:
	.loc 4 270 9 view .LVU1361
	mov	x12, 0
.LBB1574:
	.loc 4 272 31 view .LVU1362
	ldp	q26, q10, [x24, 16]
.LBE1574:
	.loc 4 270 9 view .LVU1363
	bfi	x13, x6, 0, 8
.LBB1575:
	.loc 4 272 31 view .LVU1364
	ldp	q6, q25, [x25, 16]
.LBE1575:
	.loc 4 270 9 view .LVU1365
	bfi	x12, x6, 0, 8
.LBB1576:
	.loc 4 272 31 view .LVU1366
	ldp	q30, q7, [x16, 16]
.LBE1576:
	.loc 4 270 9 view .LVU1367
	bfi	x13, x6, 8, 8
.LBB1577:
	.loc 4 272 31 view .LVU1368
	ldp	q27, q8, [x17, 16]
.LBE1577:
	.loc 4 270 9 view .LVU1369
	bfi	x12, x6, 8, 8
.LBB1578:
	.loc 4 272 31 view .LVU1370
	ldr	q16, [x3, 16]
.LBE1578:
	.loc 4 270 9 view .LVU1371
	bfi	x13, x6, 16, 8
.LBB1579:
	.loc 4 272 22 view .LVU1372
	ldr	q24, [sp, 432]
.LBE1579:
	.loc 4 270 9 view .LVU1373
	bfi	x12, x6, 16, 8
.LBB1580:
	.loc 4 272 22 view .LVU1374
	ldr	q9, [sp, 448]
.LBE1580:
	.loc 4 270 9 view .LVU1375
	mov	x8, 0
.LBB1581:
	.loc 4 272 31 view .LVU1376
	ldr	q20, [x3, 32]
.LBE1581:
	.loc 4 270 9 view .LVU1377
	mov	x21, 0
.LBB1582:
	.loc 4 272 31 view .LVU1378
	and	v0.16b, v2.16b, v0.16b
.LBE1582:
	.loc 4 270 9 view .LVU1379
	mov	x11, 0
.LBB1583:
	.loc 4 272 31 view .LVU1380
	ldp	q2, q12, [sp, 192]
.LBE1583:
	.loc 4 270 9 view .LVU1381
	mov	x20, 0
.LBB1584:
	.loc 4 272 22 view .LVU1382
	eor	v4.16b, v4.16b, v3.16b
.LBE1584:
	.loc 4 270 9 view .LVU1383
	mov	x19, 0
.LBB1585:
	.loc 4 272 31 view .LVU1384
	ldr	q3, [x25, 64]
.LBE1585:
	.loc 4 270 9 view .LVU1385
	mov	x30, 0
.LBB1586:
	.loc 4 272 31 view .LVU1386
	and	v1.16b, v1.16b, v2.16b
.LBE1586:
	.loc 4 270 9 view .LVU1387
	bfi	x13, x6, 24, 8
.LBB1587:
	.loc 4 272 31 view .LVU1388
	and	v25.16b, v25.16b, v2.16b
.LBE1587:
	.loc 4 270 9 view .LVU1389
	bfi	x8, x4, 0, 8
.LBB1588:
	.loc 4 272 31 view .LVU1390
	ldr	q2, [sp, 240]
.LBE1588:
	.loc 4 270 9 view .LVU1391
	bfi	x21, x6, 0, 8
.LBB1589:
	.loc 4 272 22 view .LVU1392
	eor	v0.16b, v0.16b, v9.16b
.LBE1589:
	.loc 4 270 9 view .LVU1393
	bfi	x11, x6, 0, 8
.LBB1590:
	.loc 4 272 31 view .LVU1394
	ldr	q9, [x23, 64]
.LBE1590:
	.loc 4 270 9 view .LVU1395
	bfi	x12, x6, 24, 8
.LBB1591:
	.loc 4 272 31 view .LVU1396
	and	v2.16b, v28.16b, v2.16b
.LBE1591:
	.loc 4 270 9 view .LVU1397
	bfi	x20, x4, 0, 8
.LBB1592:
	.loc 4 272 31 view .LVU1398
	ldr	q28, [sp, 192]
.LBE1592:
	.loc 4 270 9 view .LVU1399
	bfi	x19, x4, 0, 8
.LBB1593:
	.loc 4 272 22 view .LVU1400
	eor	v4.16b, v4.16b, v1.16b
.LBE1593:
	.loc 4 270 9 view .LVU1401
	bfi	x30, x4, 0, 8
.LBB1594:
	.loc 4 272 31 view .LVU1402
	ldr	q1, [sp, 240]
.LBE1594:
	.loc 4 270 9 view .LVU1403
	bfi	x13, x6, 32, 8
.LBB1595:
	.loc 4 272 31 view .LVU1404
	and	v3.16b, v3.16b, v28.16b
.LBE1595:
	.loc 4 270 9 view .LVU1405
	bfi	x8, x4, 8, 8
.LBB1596:
	.loc 4 272 31 view .LVU1406
	ldr	q28, [sp, 224]
.LBE1596:
	.loc 4 270 9 view .LVU1407
	bfi	x21, x6, 8, 8
.LBB1597:
	.loc 4 272 22 view .LVU1408
	eor	v0.16b, v0.16b, v25.16b
.LBE1597:
	.loc 4 270 9 view .LVU1409
	bfi	x11, x6, 8, 8
.LBB1598:
	.loc 4 272 31 view .LVU1410
	ldr	q25, [x25, 48]
.LBE1598:
	.loc 4 270 9 view .LVU1411
	bfi	x20, x4, 8, 8
.LBB1599:
	.loc 4 272 31 view .LVU1412
	and	v9.16b, v9.16b, v28.16b
.LBE1599:
	.loc 4 270 9 view .LVU1413
	bfi	x19, x4, 8, 8
.LBB1600:
	.loc 4 272 31 view .LVU1414
	ldr	q28, [x23, 48]
.LBE1600:
	.loc 4 270 9 view .LVU1415
	bfi	x30, x4, 8, 8
.LBB1601:
	.loc 4 272 22 view .LVU1416
	eor	v2.16b, v2.16b, v24.16b
.LBE1601:
	.loc 4 270 9 view .LVU1417
	bfi	x12, x6, 32, 8
.LBB1602:
	.loc 4 272 22 view .LVU1418
	eor	v3.16b, v3.16b, v9.16b
.LBE1602:
	.loc 4 270 9 view .LVU1419
	bfi	x13, x6, 40, 8
.LBB1603:
	.loc 4 272 31 view .LVU1420
	and	v1.16b, v28.16b, v1.16b
.LBE1603:
	.loc 4 270 9 view .LVU1421
	bfi	x8, x4, 16, 8
.LBB1604:
	.loc 4 272 31 view .LVU1422
	ldr	q28, [sp, 160]
.LBE1604:
	.loc 4 270 9 view .LVU1423
	bfi	x21, x6, 16, 8
.LBB1605:
	.loc 4 272 22 view .LVU1424
	ldr	q9, [sp, 464]
.LBE1605:
	.loc 4 270 9 view .LVU1425
	bfi	x11, x6, 16, 8
.LBB1606:
	.loc 4 272 31 view .LVU1426
	and	v11.16b, v11.16b, v28.16b
.LBE1606:
	.loc 4 270 9 view .LVU1427
	bfi	x20, x4, 16, 8
.LBB1607:
	.loc 4 272 31 view .LVU1428
	ldr	q28, [sp, 208]
.LBE1607:
	.loc 4 270 9 view .LVU1429
	bfi	x19, x4, 16, 8
.LBB1608:
	.loc 4 272 31 view .LVU1430
	ldr	q24, [sp, 160]
.LBE1608:
	.loc 4 270 9 view .LVU1431
	bfi	x30, x4, 16, 8
.LBB1609:
	.loc 4 272 31 view .LVU1432
	and	v6.16b, v6.16b, v28.16b
.LBE1609:
	.loc 4 270 9 view .LVU1433
	bfi	x12, x6, 40, 8
.LBB1610:
	.loc 4 272 31 view .LVU1434
	ldr	q28, [sp, 160]
.LBE1610:
	.loc 4 270 9 view .LVU1435
	bfi	x13, x6, 48, 8
.LBB1611:
	.loc 4 272 22 view .LVU1436
	eor	v1.16b, v1.16b, v9.16b
.LBE1611:
	.loc 4 270 9 view .LVU1437
	bfi	x8, x4, 24, 8
.LBB1612:
	.loc 4 272 31 view .LVU1438
	ldr	q9, [x25, 80]
.LBE1612:
	.loc 4 270 9 view .LVU1439
	bfi	x21, x6, 24, 8
.LBB1613:
	.loc 4 272 31 view .LVU1440
	and	v10.16b, v10.16b, v28.16b
.LBE1613:
	.loc 4 270 9 view .LVU1441
	bfi	x11, x6, 24, 8
.LBB1614:
	.loc 4 272 31 view .LVU1442
	ldr	q28, [x24, 64]
.LBE1614:
	.loc 4 270 9 view .LVU1443
	bfi	x20, x4, 24, 8
.LBB1615:
	.loc 4 272 31 view .LVU1444
	and	v25.16b, v25.16b, v12.16b
.LBE1615:
	.loc 4 270 9 view .LVU1445
	bfi	x19, x4, 24, 8
.LBB1616:
	.loc 4 272 31 view .LVU1446
	and	v9.16b, v9.16b, v12.16b
.LBE1616:
	.loc 4 270 9 view .LVU1447
	bfi	x30, x4, 24, 8
.LBB1617:
	.loc 4 272 31 view .LVU1448
	ldr	q12, [sp, 240]
.LBE1617:
	.loc 4 270 9 view .LVU1449
	bfi	x12, x6, 48, 8
.LBB1618:
	.loc 4 272 31 view .LVU1450
	and	v28.16b, v28.16b, v24.16b
.LBE1618:
	.loc 4 270 9 view .LVU1451
	bfi	x13, x6, 56, 8
.LBB1619:
	.loc 4 272 31 view .LVU1452
	ldr	q24, [x23, 80]
.LBE1619:
	.loc 4 270 9 view .LVU1453
	bfi	x12, x6, 56, 8
	bfi	x8, x4, 32, 8
	bfi	x21, x6, 32, 8
	bfi	x11, x6, 32, 8
	bfi	x20, x4, 32, 8
	bfi	x19, x4, 32, 8
	bfi	x30, x4, 32, 8
	stp	x13, x12, [sp, 128]
	bfi	x8, x4, 40, 8
	bfi	x21, x6, 40, 8
.LBB1620:
	.loc 4 272 22 view .LVU1454
	eor	v4.16b, v4.16b, v11.16b
.LBE1620:
	.loc 4 270 9 view .LVU1455
	bfi	x11, x6, 40, 8
.LBB1621:
	.loc 4 272 31 view .LVU1456
	ldr	q11, [sp, 128]
.LBE1621:
	.loc 4 270 9 view .LVU1457
	bfi	x20, x4, 40, 8
.LBB1622:
	.loc 4 272 31 view .LVU1458
	and	v24.16b, v24.16b, v12.16b
.LBE1622:
	.loc 4 270 9 view .LVU1459
	bfi	x19, x4, 40, 8
	bfi	x30, x4, 40, 8
	bfi	x8, x4, 48, 8
	bfi	x21, x6, 48, 8
	bfi	x11, x6, 48, 8
	bfi	x20, x4, 48, 8
	bfi	x19, x4, 48, 8
	bfi	x30, x4, 48, 8
	str	x14, [sp, 184]
.LVL148:
	.loc 4 271 3 is_stmt 1 view .LVU1460
.LBB1623:
	.loc 4 271 8 view .LVU1461
	.loc 4 271 24 view .LVU1462
	.loc 4 272 5 view .LVU1463
	.loc 4 271 35 view .LVU1464
	.loc 4 271 24 view .LVU1465
	.loc 4 272 5 view .LVU1466
	.loc 4 271 35 view .LVU1467
	.loc 4 271 24 view .LVU1468
	.loc 4 272 5 view .LVU1469
	.loc 4 271 35 view .LVU1470
	.loc 4 271 24 view .LVU1471
.LBE1623:
	.loc 4 274 3 view .LVU1472
	.loc 4 275 3 view .LVU1473
	.loc 4 277 3 view .LVU1474
.LBE1762:
	.loc 4 277 8 view .LVU1475
	.loc 4 277 24 view .LVU1476
	.loc 4 277 24 is_stmt 0 view .LVU1477
.LBE1991:
	.loc 1 752 21 is_stmt 1 view .LVU1478
	.loc 1 753 5 view .LVU1479
.LBB1992:
	.loc 4 209 29 view .LVU1480
.LBB1912:
	.loc 4 211 3 view .LVU1481
.LBB1877:
	.loc 4 189 29 view .LVU1482
.LBB1851:
	.loc 4 201 3 view .LVU1483
.LBB1827:
	.loc 4 184 29 view .LVU1484
.LBB1814:
	.loc 4 185 3 view .LVU1485
	.loc 4 185 3 is_stmt 0 view .LVU1486
.LBE1814:
.LBE1827:
.LBE1851:
.LBE1877:
.LBE1912:
.LBE1992:
.LBB1993:
	.loc 4 260 20 is_stmt 1 view .LVU1487
.LBB1763:
	.loc 4 263 3 view .LVU1488
	.loc 4 264 3 view .LVU1489
	.loc 4 265 3 view .LVU1490
	.loc 4 268 3 view .LVU1491
	.loc 4 269 3 view .LVU1492
	.loc 4 270 3 view .LVU1493
	.loc 4 271 3 view .LVU1494
.LBB1624:
	.loc 4 271 8 view .LVU1495
	.loc 4 271 24 view .LVU1496
	.loc 4 272 5 view .LVU1497
	.loc 4 271 35 view .LVU1498
	.loc 4 271 24 view .LVU1499
	.loc 4 272 5 view .LVU1500
	.loc 4 271 35 view .LVU1501
	.loc 4 271 24 view .LVU1502
	.loc 4 272 5 view .LVU1503
	.loc 4 271 35 view .LVU1504
	.loc 4 271 24 view .LVU1505
.LBE1624:
	.loc 4 274 3 view .LVU1506
	.loc 4 275 3 view .LVU1507
	.loc 4 277 3 view .LVU1508
.LBE1763:
	.loc 4 277 8 view .LVU1509
	.loc 4 277 24 view .LVU1510
	.loc 4 277 24 is_stmt 0 view .LVU1511
.LBE1993:
	.loc 1 752 21 is_stmt 1 view .LVU1512
	.loc 1 753 5 view .LVU1513
.LBB1994:
	.loc 4 209 29 view .LVU1514
.LBB1913:
	.loc 4 211 3 view .LVU1515
.LBB1878:
	.loc 4 189 29 view .LVU1516
.LBB1852:
	.loc 4 201 3 view .LVU1517
.LBB1828:
	.loc 4 184 29 view .LVU1518
.LBB1815:
	.loc 4 185 3 view .LVU1519
	.loc 4 185 3 is_stmt 0 view .LVU1520
.LBE1815:
.LBE1828:
.LBE1852:
.LBE1878:
.LBE1913:
.LBE1994:
.LBB1995:
	.loc 4 260 20 is_stmt 1 view .LVU1521
.LBB1764:
	.loc 4 263 3 view .LVU1522
	.loc 4 264 3 view .LVU1523
	.loc 4 265 3 view .LVU1524
	.loc 4 268 3 view .LVU1525
	.loc 4 269 3 view .LVU1526
	.loc 4 270 3 view .LVU1527
	.loc 4 270 9 is_stmt 0 view .LVU1528
	mov	x18, 0
	mov	x14, 0
.LBB1625:
	.loc 4 272 31 view .LVU1529
	and	v23.16b, v23.16b, v11.16b
.LBE1625:
	.loc 4 270 9 view .LVU1530
	bfi	x8, x4, 56, 8
	bfi	x21, x6, 56, 8
	bfi	x11, x6, 56, 8
	bfi	x20, x4, 56, 8
	bfi	x19, x4, 56, 8
	bfi	x30, x4, 56, 8
	bfi	x18, x5, 0, 8
.LBB1626:
	.loc 4 272 22 view .LVU1531
	eor	v24.16b, v9.16b, v24.16b
.LBE1626:
	.loc 4 270 9 view .LVU1532
	bfi	x14, x5, 0, 8
	stp	x21, x11, [sp, 144]
.LVL149:
	.loc 4 270 9 view .LVU1533
	bfi	x18, x5, 8, 8
	bfi	x14, x5, 8, 8
	stp	x20, x19, [sp, 256]
	bfi	x18, x5, 16, 8
.LBE1764:
.LBE1995:
.LBB1996:
.LBB1914:
.LBB1879:
.LBB1853:
	.loc 4 201 38 view .LVU1534
	sub	x7, x1, #1
.LBE1853:
.LBE1879:
.LBE1914:
.LBE1996:
.LBB1997:
.LBB1765:
	.loc 4 270 9 view .LVU1535
	stp	x30, x8, [sp, 272]
.LVL150:
	.loc 4 271 3 is_stmt 1 view .LVU1536
.LBB1627:
	.loc 4 271 8 view .LVU1537
	.loc 4 271 24 view .LVU1538
	.loc 4 272 5 view .LVU1539
	.loc 4 271 35 view .LVU1540
	.loc 4 271 24 view .LVU1541
	.loc 4 272 5 view .LVU1542
	.loc 4 271 35 view .LVU1543
	.loc 4 271 24 view .LVU1544
	.loc 4 272 5 view .LVU1545
	.loc 4 271 35 view .LVU1546
	.loc 4 271 24 view .LVU1547
.LBE1627:
	.loc 4 274 3 view .LVU1548
	.loc 4 275 3 view .LVU1549
	.loc 4 277 3 view .LVU1550
.LBE1765:
	.loc 4 277 8 view .LVU1551
	.loc 4 277 24 view .LVU1552
	.loc 4 277 24 is_stmt 0 view .LVU1553
.LBE1997:
	.loc 1 752 21 is_stmt 1 view .LVU1554
	.loc 1 753 5 view .LVU1555
.LBB1998:
	.loc 4 209 29 view .LVU1556
.LBB1915:
	.loc 4 211 3 view .LVU1557
.LBB1880:
	.loc 4 189 29 view .LVU1558
.LBB1854:
	.loc 4 201 3 view .LVU1559
.LBB1829:
	.loc 4 184 29 view .LVU1560
.LBB1816:
	.loc 4 185 3 view .LVU1561
	.loc 4 185 3 is_stmt 0 view .LVU1562
.LBE1816:
.LBE1829:
.LBE1854:
.LBE1880:
.LBE1915:
.LBE1998:
.LBB1999:
	.loc 4 260 20 is_stmt 1 view .LVU1563
.LBB1766:
	.loc 4 263 3 view .LVU1564
	.loc 4 264 3 view .LVU1565
	.loc 4 265 3 view .LVU1566
	.loc 4 268 3 view .LVU1567
	.loc 4 269 3 view .LVU1568
	.loc 4 270 3 view .LVU1569
	.loc 4 270 9 is_stmt 0 view .LVU1570
	bfi	x14, x5, 16, 8
.LBE1766:
.LBE1999:
.LBB2000:
.LBB1916:
.LBB1881:
.LBB1855:
	.loc 4 201 10 view .LVU1571
	bic	x1, x7, x1
.LBE1855:
.LBE1881:
.LBE1916:
.LBE2000:
.LBB2001:
.LBB1767:
.LBB1628:
	.loc 4 272 31 view .LVU1572
	ldr	q11, [sp, 176]
.LBE1628:
	.loc 4 270 9 view .LVU1573
	bfi	x18, x5, 24, 8
.LBB1629:
	.loc 4 272 31 view .LVU1574
	ldr	q9, [sp, 256]
.LBE1629:
	.loc 4 270 9 view .LVU1575
	bfi	x14, x5, 24, 8
.LBB1630:
	.loc 4 272 31 view .LVU1576
	and	v26.16b, v26.16b, v11.16b
.LBE1630:
.LBE1767:
.LBE2001:
.LBB2002:
.LBB1917:
.LBB1882:
.LBB1856:
.LBB1830:
.LBB1817:
	.loc 4 185 13 view .LVU1577
	asr	x2, x2, 63
	asr	x1, x1, 63
.LBE1817:
.LBE1830:
.LBE1856:
.LBE1882:
.LBE1917:
.LBE2002:
.LBB2003:
.LBB1768:
	.loc 4 270 18 view .LVU1578
	and	w2, w2, 255
.LBB1631:
	.loc 4 272 31 view .LVU1579
	and	v29.16b, v29.16b, v9.16b
.LBE1631:
	.loc 4 270 18 view .LVU1580
	and	w1, w1, 255
.LBB1632:
	.loc 4 272 31 view .LVU1581
	ldp	q11, q9, [sp, 128]
.LBE1632:
	.loc 4 270 9 view .LVU1582
	bfi	x18, x5, 32, 8
.LBB1633:
	.loc 4 272 22 view .LVU1583
	eor	v2.16b, v2.16b, v6.16b
.LBE1633:
	.loc 4 270 9 view .LVU1584
	bfi	x14, x5, 32, 8
.LBB1634:
	.loc 4 272 31 view .LVU1585
	ldr	q6, [sp, 128]
.LBE1634:
	.loc 4 270 9 view .LVU1586
	mov	x26, 0
.LBB1635:
	.loc 4 272 31 view .LVU1587
	and	v8.16b, v8.16b, v11.16b
.LBE1635:
	.loc 4 270 9 view .LVU1588
	mov	x22, 0
.LBB1636:
	.loc 4 272 31 view .LVU1589
	ldr	q11, [x17, 64]
.LBE1636:
	.loc 4 270 9 view .LVU1590
	mov	x7, 0
.LBB1637:
	.loc 4 272 22 view .LVU1591
	eor	v0.16b, v0.16b, v10.16b
.LBE1637:
	.loc 4 270 9 view .LVU1592
	mov	x13, 0
	mov	x12, 0
	mov	x21, 0
	mov	x20, 0
	mov	x11, 0
	bfi	x26, x2, 0, 8
	bfi	x22, x2, 0, 8
	bfi	x18, x5, 40, 8
	bfi	x7, x1, 0, 8
	bfi	x13, x5, 0, 8
	bfi	x12, x5, 0, 8
	bfi	x21, x2, 0, 8
	bfi	x14, x5, 40, 8
	bfi	x20, x2, 0, 8
	bfi	x11, x1, 0, 8
.LBB1638:
	.loc 4 272 31 view .LVU1593
	ldr	q10, [x24, 48]
.LBE1638:
	.loc 4 270 9 view .LVU1594
	bfi	x26, x2, 8, 8
.LBB1639:
	.loc 4 272 22 view .LVU1595
	eor	v0.16b, v0.16b, v8.16b
.LBE1639:
	.loc 4 270 9 view .LVU1596
	bfi	x22, x2, 8, 8
.LBB1640:
	.loc 4 272 31 view .LVU1597
	ldr	q8, [sp, 144]
.LBE1640:
	.loc 4 270 9 view .LVU1598
	bfi	x7, x1, 8, 8
.LBB1641:
	.loc 4 272 31 view .LVU1599
	and	v6.16b, v11.16b, v6.16b
.LBE1641:
	.loc 4 270 9 view .LVU1600
	bfi	x18, x5, 48, 8
.LBB1642:
	.loc 4 272 31 view .LVU1601
	ldr	q11, [sp, 176]
.LBE1642:
	.loc 4 270 9 view .LVU1602
	bfi	x13, x5, 8, 8
.LBB1643:
	.loc 4 272 22 view .LVU1603
	eor	v4.16b, v4.16b, v23.16b
.LBE1643:
	.loc 4 270 9 view .LVU1604
	bfi	x12, x5, 8, 8
.LBB1644:
	.loc 4 272 31 view .LVU1605
	ldr	q23, [x17, 48]
.LBE1644:
	.loc 4 270 9 view .LVU1606
	bfi	x21, x2, 8, 8
.LBB1645:
	.loc 4 272 22 view .LVU1607
	eor	v2.16b, v2.16b, v26.16b
.LBE1645:
	.loc 4 270 9 view .LVU1608
	bfi	x20, x2, 8, 8
.LBB1646:
	.loc 4 272 31 view .LVU1609
	ldr	q26, [x17, 80]
.LBE1646:
	.loc 4 270 9 view .LVU1610
	bfi	x11, x1, 8, 8
	bfi	x14, x5, 48, 8
	bfi	x18, x5, 56, 8
	bfi	x26, x2, 16, 8
	bfi	x22, x2, 16, 8
	bfi	x14, x5, 56, 8
	bfi	x7, x1, 16, 8
	bfi	x13, x5, 16, 8
	bfi	x12, x5, 16, 8
	bfi	x21, x2, 16, 8
	bfi	x20, x2, 16, 8
	bfi	x11, x1, 16, 8
	stp	x18, x14, [sp, 192]
	bfi	x26, x2, 24, 8
.LBB1647:
	.loc 4 272 31 view .LVU1611
	and	v27.16b, v27.16b, v9.16b
.LBE1647:
	.loc 4 270 9 view .LVU1612
	bfi	x22, x2, 24, 8
.LBB1648:
	.loc 4 272 31 view .LVU1613
	ldr	q9, [sp, 256]
.LBE1648:
	.loc 4 270 9 view .LVU1614
	bfi	x7, x1, 24, 8
.LBB1649:
	.loc 4 272 31 view .LVU1615
	and	v23.16b, v23.16b, v8.16b
.LBE1649:
	.loc 4 270 9 view .LVU1616
	bfi	x13, x5, 24, 8
.LBB1650:
	.loc 4 272 31 view .LVU1617
	and	v26.16b, v26.16b, v8.16b
.LBE1650:
	.loc 4 270 9 view .LVU1618
	bfi	x12, x5, 24, 8
.LBB1651:
	.loc 4 272 31 view .LVU1619
	ldr	q8, [sp, 192]
.LBE1651:
	.loc 4 270 9 view .LVU1620
	bfi	x21, x2, 24, 8
.LBB1652:
	.loc 4 272 22 view .LVU1621
	eor	v1.16b, v1.16b, v25.16b
.LBE1652:
	.loc 4 270 9 view .LVU1622
	bfi	x20, x2, 24, 8
.LBB1653:
	.loc 4 272 31 view .LVU1623
	and	v25.16b, v10.16b, v11.16b
.LBE1653:
	.loc 4 270 9 view .LVU1624
	bfi	x11, x1, 24, 8
.LBB1654:
	.loc 4 272 22 view .LVU1625
	eor	v3.16b, v3.16b, v28.16b
.LBE1654:
	.loc 4 270 9 view .LVU1626
	bfi	x26, x2, 32, 8
.LBB1655:
	.loc 4 272 31 view .LVU1627
	ldr	q28, [x24, 80]
.LBE1655:
	.loc 4 270 9 view .LVU1628
	bfi	x22, x2, 32, 8
	bfi	x7, x1, 32, 8
	bfi	x13, x5, 32, 8
	bfi	x12, x5, 32, 8
	bfi	x21, x2, 32, 8
	bfi	x20, x2, 32, 8
	bfi	x11, x1, 32, 8
.LBB1656:
	.loc 4 272 31 view .LVU1629
	and	v28.16b, v28.16b, v11.16b
.LBE1656:
	.loc 4 270 9 view .LVU1630
	bfi	x26, x2, 40, 8
.LBB1657:
	.loc 4 272 31 view .LVU1631
	and	v7.16b, v7.16b, v9.16b
.LBE1657:
	.loc 4 270 9 view .LVU1632
	bfi	x22, x2, 40, 8
.LBB1658:
	.loc 4 272 22 view .LVU1633
	eor	v4.16b, v4.16b, v29.16b
.LBE1658:
	.loc 4 270 9 view .LVU1634
	bfi	x7, x1, 40, 8
.LBB1659:
	.loc 4 272 31 view .LVU1635
	and	v29.16b, v5.16b, v8.16b
.LBE1659:
	.loc 4 270 9 view .LVU1636
	bfi	x13, x5, 40, 8
.LBB1660:
	.loc 4 272 31 view .LVU1637
	ldr	q5, [sp, 272]
.LBE1660:
	.loc 4 270 9 view .LVU1638
	bfi	x12, x5, 40, 8
.LBB1661:
	.loc 4 272 22 view .LVU1639
	eor	v1.16b, v1.16b, v25.16b
.LBE1661:
	.loc 4 270 9 view .LVU1640
	bfi	x21, x2, 40, 8
	bfi	x20, x2, 40, 8
	bfi	x11, x1, 40, 8
	bfi	x26, x2, 48, 8
	bfi	x22, x2, 48, 8
	bfi	x7, x1, 48, 8
	bfi	x13, x5, 48, 8
	bfi	x12, x5, 48, 8
	bfi	x21, x2, 48, 8
	bfi	x20, x2, 48, 8
	bfi	x11, x1, 48, 8
.LBB1662:
	.loc 4 272 31 view .LVU1641
	ldr	q25, [x16, 48]
.LBE1662:
	.loc 4 270 9 view .LVU1642
	bfi	x7, x1, 56, 8
.LBB1663:
	.loc 4 272 22 view .LVU1643
	eor	v24.16b, v24.16b, v28.16b
.LBE1663:
	.loc 4 270 9 view .LVU1644
	bfi	x26, x2, 56, 8
.LBB1664:
	.loc 4 272 31 view .LVU1645
	ldr	q28, [x16, 80]
.LBE1664:
	.loc 4 270 9 view .LVU1646
	bfi	x22, x2, 56, 8
.LBB1665:
	.loc 4 272 31 view .LVU1647
	and	v30.16b, v30.16b, v5.16b
.LBE1665:
	.loc 4 270 9 view .LVU1648
	bfi	x13, x5, 56, 8
.LBB1666:
	.loc 4 272 22 view .LVU1649
	eor	v5.16b, v0.16b, v7.16b
.LBE1666:
	.loc 4 270 9 view .LVU1650
	bfi	x12, x5, 56, 8
.LBB1667:
	.loc 4 272 31 view .LVU1651
	ldr	q7, [x9, 64]
.LBE1667:
	.loc 4 270 9 view .LVU1652
	bfi	x21, x2, 56, 8
	bfi	x20, x2, 56, 8
	bfi	x11, x1, 56, 8
.LBB1668:
	.loc 4 272 22 view .LVU1653
	eor	v3.16b, v3.16b, v6.16b
.LBE1668:
	.loc 4 270 9 view .LVU1654
	stp	x11, x7, [sp, 128]
	mov	x6, 0
.LBB1669:
	.loc 4 272 31 view .LVU1655
	ldr	q6, [x16, 64]
.LBE1669:
	.loc 4 270 9 view .LVU1656
	stp	x22, x21, [sp, 160]
	mov	x4, 0
.LBB1670:
	.loc 4 272 22 view .LVU1657
	eor	v1.16b, v1.16b, v23.16b
.LBE1670:
	.loc 4 270 9 view .LVU1658
	stp	x26, x20, [sp, 176]
	bfi	x6, x1, 0, 8
	stp	x13, x12, [sp, 208]
.LVL151:
	.loc 4 271 3 is_stmt 1 view .LVU1659
.LBB1671:
	.loc 4 271 8 view .LVU1660
	.loc 4 271 24 view .LVU1661
	.loc 4 272 5 view .LVU1662
	.loc 4 271 35 view .LVU1663
	.loc 4 271 24 view .LVU1664
	.loc 4 272 5 view .LVU1665
	.loc 4 271 35 view .LVU1666
	.loc 4 271 24 view .LVU1667
	.loc 4 272 5 view .LVU1668
	.loc 4 271 35 view .LVU1669
	.loc 4 271 24 view .LVU1670
.LBE1671:
	.loc 4 274 3 view .LVU1671
	.loc 4 275 3 view .LVU1672
	.loc 4 277 3 view .LVU1673
.LBE1768:
	.loc 4 277 8 view .LVU1674
	.loc 4 277 24 view .LVU1675
	.loc 4 277 24 is_stmt 0 view .LVU1676
.LBE2003:
	.loc 1 752 21 is_stmt 1 view .LVU1677
	.loc 1 753 5 view .LVU1678
.LBB2004:
	.loc 4 209 29 view .LVU1679
.LBB1918:
	.loc 4 211 3 view .LVU1680
.LBB1883:
	.loc 4 189 29 view .LVU1681
.LBB1857:
	.loc 4 201 3 view .LVU1682
.LBB1831:
	.loc 4 184 29 view .LVU1683
.LBB1818:
	.loc 4 185 3 view .LVU1684
	.loc 4 185 3 is_stmt 0 view .LVU1685
.LBE1818:
.LBE1831:
.LBE1857:
.LBE1883:
.LBE1918:
.LBE2004:
.LBB2005:
	.loc 4 260 20 is_stmt 1 view .LVU1686
.LBB1769:
	.loc 4 263 3 view .LVU1687
	.loc 4 264 3 view .LVU1688
	.loc 4 265 3 view .LVU1689
	.loc 4 268 3 view .LVU1690
	.loc 4 269 3 view .LVU1691
	.loc 4 270 3 view .LVU1692
	.loc 4 271 3 view .LVU1693
.LBB1672:
	.loc 4 271 8 view .LVU1694
	.loc 4 271 24 view .LVU1695
	.loc 4 272 5 view .LVU1696
	.loc 4 271 35 view .LVU1697
	.loc 4 271 24 view .LVU1698
	.loc 4 272 5 view .LVU1699
	.loc 4 271 35 view .LVU1700
	.loc 4 271 24 view .LVU1701
	.loc 4 272 5 view .LVU1702
	.loc 4 271 35 view .LVU1703
	.loc 4 271 24 view .LVU1704
.LBE1672:
	.loc 4 274 3 view .LVU1705
	.loc 4 275 3 view .LVU1706
	.loc 4 277 3 view .LVU1707
.LBE1769:
	.loc 4 277 8 view .LVU1708
	.loc 4 277 24 view .LVU1709
	.loc 4 277 24 is_stmt 0 view .LVU1710
.LBE2005:
	.loc 1 752 21 is_stmt 1 view .LVU1711
	.loc 1 753 5 view .LVU1712
.LBB2006:
	.loc 4 209 29 view .LVU1713
.LBB1919:
	.loc 4 211 3 view .LVU1714
.LBB1884:
	.loc 4 189 29 view .LVU1715
.LBB1858:
	.loc 4 201 3 view .LVU1716
.LBB1832:
	.loc 4 184 29 view .LVU1717
.LBB1819:
	.loc 4 185 3 view .LVU1718
	.loc 4 185 3 is_stmt 0 view .LVU1719
.LBE1819:
.LBE1832:
.LBE1858:
.LBE1884:
.LBE1919:
.LBE2006:
.LBB2007:
	.loc 4 260 20 is_stmt 1 view .LVU1720
.LBB1770:
	.loc 4 263 3 view .LVU1721
	.loc 4 264 3 view .LVU1722
	.loc 4 265 3 view .LVU1723
	.loc 4 268 3 view .LVU1724
	.loc 4 269 3 view .LVU1725
	.loc 4 270 3 view .LVU1726
	.loc 4 270 9 is_stmt 0 view .LVU1727
	bfi	x4, x1, 0, 8
	bfi	x6, x1, 8, 8
.LBB1673:
	.loc 4 272 31 view .LVU1728
	ldp	q0, q23, [x15, 64]
.LBE1673:
	.loc 4 270 9 view .LVU1729
	bfi	x4, x1, 8, 8
.LBB1674:
	.loc 4 272 31 view .LVU1730
	and	v31.16b, v31.16b, v8.16b
.LBE1674:
	.loc 4 270 9 view .LVU1731
	bfi	x6, x1, 16, 8
.LBB1675:
	.loc 4 272 22 view .LVU1732
	eor	v2.16b, v2.16b, v27.16b
.LBE1675:
	.loc 4 270 9 view .LVU1733
	bfi	x4, x1, 16, 8
.LBB1676:
	.loc 4 272 31 view .LVU1734
	and	v27.16b, v0.16b, v8.16b
.LBE1676:
	.loc 4 270 9 view .LVU1735
	bfi	x6, x1, 24, 8
.LBB1677:
	.loc 4 272 31 view .LVU1736
	ldr	q0, [sp, 272]
.LBE1677:
	.loc 4 270 9 view .LVU1737
	bfi	x4, x1, 24, 8
.LBB1678:
	.loc 4 272 31 view .LVU1738
	ldr	q8, [sp, 272]
.LBE1678:
	.loc 4 270 9 view .LVU1739
	bfi	x6, x1, 32, 8
.LBB1679:
	.loc 4 272 31 view .LVU1740
	and	v25.16b, v25.16b, v0.16b
.LBE1679:
	.loc 4 270 9 view .LVU1741
	bfi	x4, x1, 32, 8
.LBB1680:
	.loc 4 272 22 view .LVU1742
	eor	v0.16b, v24.16b, v26.16b
.LBE1680:
	.loc 4 270 9 view .LVU1743
	bfi	x6, x1, 40, 8
.LBB1681:
	.loc 4 272 31 view .LVU1744
	and	v24.16b, v28.16b, v8.16b
.LBE1681:
	.loc 4 270 9 view .LVU1745
	bfi	x4, x1, 40, 8
.LBB1682:
	.loc 4 272 31 view .LVU1746
	ldr	q8, [sp, 160]
.LBE1682:
	.loc 4 270 9 view .LVU1747
	bfi	x6, x1, 48, 8
.LBB1683:
	.loc 4 272 22 view .LVU1748
	eor	v4.16b, v4.16b, v29.16b
.LBE1683:
	.loc 4 270 9 view .LVU1749
	bfi	x4, x1, 48, 8
.LBB1684:
	.loc 4 272 31 view .LVU1750
	and	v6.16b, v6.16b, v9.16b
.LBE1684:
	.loc 4 270 9 view .LVU1751
	bfi	x6, x1, 56, 8
.LBB1685:
	.loc 4 272 31 view .LVU1752
	and	v29.16b, v19.16b, v8.16b
.LBE1685:
	.loc 4 270 9 view .LVU1753
	bfi	x4, x1, 56, 8
.LBB1686:
	.loc 4 272 31 view .LVU1754
	ldr	q8, [sp, 208]
.LBE1686:
	.loc 4 270 9 view .LVU1755
	stp	x6, x4, [sp, 144]
.LVL152:
	.loc 4 271 3 is_stmt 1 view .LVU1756
.LBB1687:
	.loc 4 271 8 view .LVU1757
	.loc 4 271 24 view .LVU1758
	.loc 4 272 5 view .LVU1759
.LBE1687:
.LBE1770:
.LBE2007:
.LBE2067:
.LBB2068:
.LBB2069:
.LBB2070:
	.loc 2 462 6 is_stmt 0 view .LVU1760
	mov	x8, -38
.LBE2070:
.LBE2069:
.LBE2068:
.LBB2089:
.LBB2008:
.LBB1771:
.LBB1688:
	.loc 4 272 22 view .LVU1761
	eor	v3.16b, v3.16b, v6.16b
.LBE1688:
.LBE1771:
.LBE2008:
.LBE2089:
.LBB2090:
.LBB2080:
.LBB2071:
	.loc 2 462 6 view .LVU1762
	movk	x8, 0xf, lsl 48
.LBE2071:
.LBE2080:
.LBE2090:
.LBB2091:
.LBB2009:
.LBB1772:
.LBB1689:
	.loc 4 272 31 view .LVU1763
	and	v26.16b, v17.16b, v8.16b
.LBE1689:
.LBE1772:
.LBE2009:
.LBE2091:
.LBB2092:
.LBB2093:
.LBB2094:
.LBB2095:
	.loc 1 312 5 view .LVU1764
	asr	x10, x10, 63
.LVL153:
	.loc 1 312 5 view .LVU1765
.LBE2095:
.LBE2094:
.LBE2093:
.LBE2092:
.LBB2205:
.LBB2010:
.LBB1773:
.LBB1690:
	.loc 4 272 31 view .LVU1766
	ldr	q8, [sp, 160]
.LBE1690:
.LBE1773:
.LBE2010:
.LBE2205:
.LBB2206:
.LBB2207:
.LBB2208:
	.loc 3 81 10 view .LVU1767
	add	x6, x0, 40
.LBE2208:
.LBE2207:
.LBE2206:
.LBB2213:
.LBB2011:
.LBB1774:
.LBB1691:
	.loc 4 272 31 view .LVU1768
	ldr	q6, [x15, 48]
.LBE1691:
.LBE1774:
.LBE2011:
.LBE2213:
.LBB2214:
.LBB2215:
.LBB2216:
	.loc 3 81 10 view .LVU1769
	add	x7, x0, 80
.LBE2216:
.LBE2215:
.LBE2214:
.LBB2223:
.LBB2012:
.LBB1775:
.LBB1692:
	.loc 4 272 31 view .LVU1770
	and	v28.16b, v18.16b, v8.16b
.LBE1692:
.LBE1775:
.LBE2012:
.LBE2223:
.LBB2224:
.LBB2081:
.LBB2072:
	.loc 2 463 6 view .LVU1771
	mov	x5, 4503599627370494
.LBE2072:
.LBE2081:
.LBE2224:
.LBB2225:
.LBB2013:
.LBB1776:
.LBB1693:
	.loc 4 272 31 view .LVU1772
	and	v7.16b, v7.16b, v8.16b
	ldr	q8, [sp, 208]
	ldr	q19, [x3, 64]
	and	v6.16b, v6.16b, v8.16b
	and	v23.16b, v23.16b, v8.16b
	ldr	q8, [sp, 128]
	.loc 4 272 22 view .LVU1773
	eor	v3.16b, v3.16b, v27.16b
	eor	v4.16b, v4.16b, v29.16b
	.loc 4 272 31 view .LVU1774
	and	v22.16b, v22.16b, v8.16b
	ldr	q8, [sp, 176]
	.loc 4 272 22 view .LVU1775
	eor	v3.16b, v3.16b, v7.16b
	eor	v4.16b, v4.16b, v22.16b
	.loc 4 272 31 view .LVU1776
	and	v21.16b, v21.16b, v8.16b
	ldr	q8, [sp, 128]
	.loc 4 272 22 view .LVU1777
	eor	v5.16b, v5.16b, v31.16b
.LBE1693:
.LBE1776:
.LBE2013:
.LBE2225:
.LBB2226:
.LBB2227:
.LBB2228:
	.loc 2 799 10 view .LVU1778
	umov	w2, v4.b[3]
	.loc 2 798 10 view .LVU1779
	umov	w19, v4.b[4]
.LBE2228:
.LBE2227:
.LBE2226:
.LBB2337:
.LBB2014:
.LBB1777:
.LBB1694:
	.loc 4 272 31 view .LVU1780
	and	v19.16b, v19.16b, v8.16b
	and	v20.16b, v20.16b, v8.16b
	.loc 4 272 22 view .LVU1781
	eor	v1.16b, v1.16b, v25.16b
	eor	v5.16b, v5.16b, v28.16b
	eor	v3.16b, v3.16b, v19.16b
.LBE1694:
.LBE1777:
.LBE2014:
.LBE2337:
.LBB2338:
.LBB2283:
.LBB2229:
	.loc 2 799 7 view .LVU1782
	lsl	x2, x2, 24
.LBE2229:
.LBE2283:
.LBE2338:
.LBB2339:
.LBB2015:
.LBB1778:
.LBB1695:
	.loc 4 272 31 view .LVU1783
	ldr	q18, [x9, 48]
.LBE1695:
.LBE1778:
.LBE2015:
.LBE2339:
.LBB2340:
.LBB2284:
.LBB2230:
	.loc 2 801 10 view .LVU1784
	umov	w15, v4.b[1]
.LBE2230:
.LBE2284:
.LBE2340:
.LBB2341:
.LBB2016:
.LBB1779:
.LBB1696:
	.loc 4 272 22 view .LVU1785
	eor	v5.16b, v5.16b, v20.16b
.LBE1696:
.LBE1779:
.LBE2016:
.LBE2341:
.LBB2342:
.LBB2285:
.LBB2231:
	.loc 2 808 7 view .LVU1786
	add	x19, x2, x19, lsl 32
.LBE2231:
.LBE2285:
.LBE2342:
.LBB2343:
.LBB2344:
.LBB2345:
	.loc 2 797 10 view .LVU1787
	umov	w13, v3.b[5]
	.loc 2 799 10 view .LVU1788
	umov	w14, v3.b[3]
.LBE2345:
.LBE2344:
.LBE2343:
.LBB2456:
.LBB2017:
.LBB1780:
.LBB1697:
	.loc 4 272 22 view .LVU1789
	eor	v1.16b, v1.16b, v6.16b
	.loc 4 272 31 view .LVU1790
	ldr	q6, [sp, 176]
.LBE1697:
.LBE1780:
.LBE2017:
.LBE2456:
.LBB2457:
.LBB2286:
.LBB2232:
	.loc 2 797 10 view .LVU1791
	umov	w1, v4.b[5]
.LBE2232:
.LBE2286:
.LBE2457:
.LBB2458:
.LBB2018:
.LBB1781:
.LBB1698:
	.loc 4 272 31 view .LVU1792
	ldr	q17, [x9, 80]
.LBE1698:
.LBE1781:
.LBE2018:
.LBE2458:
.LBB2459:
.LBB2287:
.LBB2233:
	.loc 2 800 10 view .LVU1793
	umov	w9, v4.b[2]
.LBE2233:
.LBE2287:
.LBE2459:
.LBB2460:
.LBB2019:
.LBB1782:
.LBB1699:
	.loc 4 272 31 view .LVU1794
	ldr	q8, [sp, 176]
.LBE1699:
.LBE1782:
.LBE2019:
.LBE2460:
.LBB2461:
.LBB2401:
.LBB2346:
	.loc 2 797 7 view .LVU1795
	lsl	x2, x13, 40
	.loc 2 798 10 view .LVU1796
	umov	w13, v3.b[4]
.LBE2346:
.LBE2401:
.LBE2461:
.LBB2462:
.LBB2288:
.LBB2234:
	.loc 2 796 10 view .LVU1797
	umov	w16, v4.b[6]
.LBE2234:
.LBE2288:
.LBE2462:
.LBB2463:
.LBB2020:
.LBB1783:
.LBB1700:
	.loc 4 272 31 view .LVU1798
	ldr	q7, [x3, 48]
.LBE1700:
.LBE1783:
.LBE2020:
.LBE2463:
.LBB2464:
.LBB2289:
.LBB2235:
	.loc 2 791 10 view .LVU1799
	umov	w22, v4.b[11]
.LBE2235:
.LBE2289:
.LBE2464:
.LBB2465:
.LBB2021:
.LBB1784:
.LBB1701:
	.loc 4 272 31 view .LVU1800
	and	v18.16b, v18.16b, v6.16b
.LBE1701:
.LBE1784:
.LBE2021:
.LBE2465:
.LBB2466:
.LBB2290:
.LBB2236:
	.loc 2 801 7 view .LVU1801
	lsl	x15, x15, 8
.LBE2236:
.LBE2290:
.LBE2466:
.LBB2467:
.LBB2022:
.LBB1785:
.LBB1702:
	.loc 4 272 31 view .LVU1802
	ldr	q6, [x3, 80]
.LBE1702:
.LBE1785:
.LBE2022:
.LBE2467:
.LBB2468:
.LBB2469:
.LBB2470:
	.loc 2 799 10 view .LVU1803
	umov	w21, v5.b[3]
.LBE2470:
.LBE2469:
.LBE2468:
.LBB2579:
.LBB2291:
.LBB2237:
	.loc 2 793 10 view .LVU1804
	umov	w3, v4.b[9]
.LVL154:
	.loc 2 790 10 view .LVU1805
	umov	w24, v4.b[12]
.LBE2237:
.LBE2291:
.LBE2579:
.LBB2580:
.LBB2023:
.LBB1786:
.LBB1703:
	.loc 4 272 31 view .LVU1806
	and	v17.16b, v17.16b, v8.16b
.LBE1703:
.LBE1786:
.LBE2023:
.LBE2580:
.LBB2581:
.LBB2292:
.LBB2238:
	.loc 2 808 7 view .LVU1807
	add	x9, x15, x9, lsl 16
.LBE2238:
.LBE2292:
.LBE2581:
.LBB2582:
.LBB2024:
.LBB1787:
.LBB1704:
	.loc 4 272 31 view .LVU1808
	ldr	q8, [sp, 144]
.LBE1704:
.LBE1787:
.LBE2024:
.LBE2582:
.LBB2583:
.LBB2525:
.LBB2471:
	.loc 2 798 10 view .LVU1809
	umov	w18, v5.b[4]
.LBE2471:
.LBE2525:
.LBE2583:
.LBB2584:
.LBB2293:
.LBB2239:
	.loc 2 792 10 view .LVU1810
	umov	w4, v4.b[10]
.LBE2239:
.LBE2293:
.LBE2584:
.LBB2585:
.LBB2526:
.LBB2472:
	.loc 2 793 10 view .LVU1811
	umov	w17, v5.b[9]
.LVL155:
	.loc 2 793 10 view .LVU1812
.LBE2472:
.LBE2526:
.LBE2585:
.LBB2586:
.LBB2402:
.LBB2347:
	.loc 2 796 10 view .LVU1813
	umov	w15, v3.b[6]
	.loc 2 799 7 view .LVU1814
	lsl	x14, x14, 24
	.loc 2 808 7 view .LVU1815
	add	x13, x14, x13, lsl 32
.LBE2347:
.LBE2402:
.LBE2586:
.LBB2587:
.LBB2527:
.LBB2473:
	.loc 2 792 10 view .LVU1816
	umov	w14, v5.b[10]
	.loc 2 797 10 view .LVU1817
	umov	w11, v5.b[5]
.LBE2473:
.LBE2527:
.LBE2587:
.LBB2588:
.LBB2294:
.LBB2240:
	.loc 2 797 7 view .LVU1818
	lsl	x1, x1, 40
.LBE2240:
.LBE2294:
.LBE2588:
.LBB2589:
.LBB2025:
.LBB1788:
.LBB1705:
	.loc 4 272 31 view .LVU1819
	and	v7.16b, v7.16b, v8.16b
.LBE1705:
.LBE1788:
.LBE2025:
.LBE2589:
.LBB2590:
.LBB2295:
.LBB2241:
	.loc 2 808 7 view .LVU1820
	add	x1, x1, x16, lsl 48
.LBE2241:
.LBE2295:
.LBE2590:
.LBB2591:
.LBB2528:
.LBB2474:
	.loc 2 796 10 view .LVU1821
	umov	w20, v5.b[6]
	.loc 2 791 10 view .LVU1822
	umov	w16, v5.b[11]
.LBE2474:
.LBE2528:
.LBE2591:
.LBB2592:
.LBB2026:
.LBB1789:
.LBB1706:
	.loc 4 272 22 view .LVU1823
	eor	v1.16b, v1.16b, v18.16b
.LBE1706:
.LBE1789:
.LBE2026:
.LBE2592:
.LBB2593:
.LBB2296:
.LBB2242:
	.loc 2 791 7 view .LVU1824
	lsl	x22, x22, 37
.LBE2242:
.LBE2296:
.LBE2593:
.LBB2594:
.LBB2529:
.LBB2475:
	.loc 2 799 7 view .LVU1825
	lsl	x21, x21, 24
.LBE2475:
.LBE2529:
.LBE2594:
.LBB2595:
.LBB2297:
.LBB2243:
	.loc 2 793 7 view .LVU1826
	lsl	x3, x3, 21
	.loc 2 808 7 view .LVU1827
	add	x19, x19, x1
.LBE2243:
.LBE2297:
.LBE2595:
.LBB2596:
.LBB2530:
.LBB2476:
	add	x18, x21, x18, lsl 32
.LBE2476:
.LBE2530:
.LBE2596:
.LBB2597:
.LBB2298:
.LBB2244:
	.loc 2 816 7 view .LVU1828
	add	x1, x22, x24, lsl 45
.LBE2244:
.LBE2298:
.LBE2597:
.LBB2598:
.LBB2531:
.LBB2477:
	.loc 2 790 10 view .LVU1829
	umov	w21, v5.b[12]
.LBE2477:
.LBE2531:
.LBE2598:
.LBB2599:
.LBB2299:
.LBB2245:
	.loc 2 816 7 view .LVU1830
	add	x4, x3, x4, lsl 29
.LBE2245:
.LBE2299:
.LBE2599:
.LBB2600:
.LBB2403:
.LBB2348:
	.loc 2 808 7 view .LVU1831
	add	x15, x2, x15, lsl 48
.LBE2348:
.LBE2403:
.LBE2600:
.LBB2601:
.LBB2027:
.LBB1790:
.LBB1707:
	.loc 4 272 22 view .LVU1832
	eor	v2.16b, v2.16b, v30.16b
.LBE1707:
.LBE1790:
.LBE2027:
.LBE2601:
.LBB2602:
.LBB2532:
.LBB2478:
	.loc 2 793 7 view .LVU1833
	lsl	x17, x17, 21
	.loc 2 795 10 view .LVU1834
	umov	w2, v5.b[7]
.LBE2478:
.LBE2532:
.LBE2602:
.LBB2603:
.LBB2300:
.LBB2246:
	.loc 2 816 7 view .LVU1835
	add	x4, x4, x1
.LBE2246:
.LBE2300:
.LBE2603:
.LBB2604:
.LBB2404:
.LBB2349:
	.loc 2 791 10 view .LVU1836
	umov	w1, v3.b[11]
.LBE2349:
.LBE2404:
.LBE2604:
.LBB2605:
.LBB2533:
.LBB2479:
	.loc 2 816 7 view .LVU1837
	add	x14, x17, x14, lsl 29
.LBE2479:
.LBE2533:
.LBE2605:
.LBB2606:
.LBB2405:
.LBB2350:
	.loc 2 808 7 view .LVU1838
	add	x13, x13, x15
.LBE2350:
.LBE2405:
.LBE2606:
.LBB2607:
.LBB2534:
.LBB2480:
	.loc 2 794 10 view .LVU1839
	umov	w17, v5.b[8]
.LBE2480:
.LBE2534:
.LBE2607:
.LBB2608:
.LBB2406:
.LBB2351:
	.loc 2 790 10 view .LVU1840
	umov	w15, v3.b[12]
.LBE2351:
.LBE2406:
.LBE2608:
.LBB2609:
.LBB2535:
.LBB2481:
	.loc 2 797 7 view .LVU1841
	lsl	x11, x11, 40
.LBE2481:
.LBE2535:
.LBE2609:
.LBB2610:
.LBB2028:
.LBB1791:
.LBB1708:
	.loc 4 272 22 view .LVU1842
	eor	v1.16b, v1.16b, v7.16b
.LBE1708:
.LBE1791:
.LBE2028:
.LBE2610:
.LBB2611:
.LBB2301:
.LBB2247:
	.loc 2 808 7 view .LVU1843
	add	x19, x19, x9
.LBE2247:
.LBE2301:
.LBE2611:
.LBB2612:
.LBB2536:
.LBB2482:
	add	x20, x11, x20, lsl 48
	.loc 2 801 10 view .LVU1844
	umov	w23, v5.b[1]
.LBE2482:
.LBE2536:
.LBE2612:
.LBB2613:
.LBB2407:
.LBB2352:
	.loc 2 793 10 view .LVU1845
	umov	w9, v3.b[9]
	.loc 2 801 10 view .LVU1846
	umov	w3, v3.b[1]
.LBE2352:
.LBE2407:
.LBE2613:
.LBB2614:
.LBB2537:
.LBB2483:
	.loc 2 791 7 view .LVU1847
	lsl	x16, x16, 37
	.loc 2 800 10 view .LVU1848
	umov	w11, v5.b[2]
	.loc 2 816 7 view .LVU1849
	add	x21, x16, x21, lsl 45
	.loc 2 808 7 view .LVU1850
	add	x18, x18, x20
.LBE2483:
.LBE2537:
.LBE2614:
.LBB2615:
.LBB2408:
.LBB2353:
	.loc 2 792 10 view .LVU1851
	umov	w16, v3.b[10]
	.loc 2 800 10 view .LVU1852
	umov	w20, v3.b[2]
.LBE2353:
.LBE2408:
.LBE2615:
.LBB2616:
.LBB2029:
.LBB1792:
.LBB1709:
	.loc 4 272 22 view .LVU1853
	eor	v0.16b, v0.16b, v24.16b
.LBE1709:
.LBE1792:
.LBE2029:
.LBE2616:
.LBB2617:
.LBB2538:
.LBB2484:
	.loc 2 795 7 view .LVU1854
	lsl	x2, x2, 5
.LBE2484:
.LBE2538:
.LBE2617:
.LBB2618:
.LBB2030:
.LBB1793:
.LBB1710:
	.loc 4 272 22 view .LVU1855
	eor	v2.16b, v2.16b, v26.16b
.LBE1710:
.LBE1793:
.LBE2030:
.LBE2618:
.LBB2619:
.LBB2409:
.LBB2354:
	.loc 2 791 7 view .LVU1856
	lsl	x1, x1, 37
.LBE2354:
.LBE2409:
.LBE2619:
.LBB2620:
.LBB2539:
.LBB2485:
	.loc 2 816 7 view .LVU1857
	add	x17, x2, x17, lsl 13
.LBE2485:
.LBE2539:
.LBE2620:
.LBB2621:
.LBB2410:
.LBB2355:
	add	x15, x1, x15, lsl 45
.LBE2355:
.LBE2410:
.LBE2621:
.LBB2622:
.LBB2540:
.LBB2486:
	add	x14, x14, x21
	.loc 2 784 10 view .LVU1858
	umov	w1, v1.b[2]
	.loc 2 816 7 view .LVU1859
	add	x14, x14, x17
	.loc 2 783 10 view .LVU1860
	umov	w17, v1.b[3]
.LBE2486:
.LBE2540:
.LBE2622:
.LBB2623:
.LBB2031:
.LBB1794:
.LBB1711:
	.loc 4 272 31 view .LVU1861
	and	v16.16b, v16.16b, v8.16b
.LBE1711:
.LBE1794:
.LBE2031:
.LBE2623:
.LBB2624:
.LBB2541:
.LBB2487:
	.loc 2 801 7 view .LVU1862
	lsl	x23, x23, 8
.LBE2487:
.LBE2541:
.LBE2624:
.LBB2625:
.LBB2032:
.LBB1795:
.LBB1712:
	.loc 4 272 22 view .LVU1863
	eor	v0.16b, v0.16b, v23.16b
.LBE1712:
.LBE1795:
.LBE2032:
.LBE2625:
.LBB2626:
.LBB2411:
.LBB2356:
	.loc 2 793 7 view .LVU1864
	lsl	x9, x9, 21
.LBE2356:
.LBE2411:
.LBE2626:
.LBB2627:
.LBB2033:
.LBB1796:
.LBB1713:
	.loc 4 272 22 view .LVU1865
	eor	v2.16b, v2.16b, v21.16b
.LBE1713:
.LBE1796:
.LBE2033:
.LBE2627:
.LBB2628:
.LBB2412:
.LBB2357:
	.loc 2 801 7 view .LVU1866
	lsl	x3, x3, 8
.LBE2357:
.LBE2412:
.LBE2628:
.LBB2629:
.LBB2542:
.LBB2488:
	.loc 2 808 7 view .LVU1867
	add	x11, x23, x11, lsl 16
.LBE2488:
.LBE2542:
.LBE2629:
.LBB2630:
.LBB2413:
.LBB2358:
	add	x20, x3, x20, lsl 16
.LBE2358:
.LBE2413:
.LBE2630:
.LBB2631:
.LBB2302:
.LBB2248:
	.loc 2 795 10 view .LVU1868
	umov	w12, v4.b[7]
.LBE2248:
.LBE2302:
.LBE2631:
.LBB2632:
.LBB2414:
.LBB2359:
	umov	w3, v3.b[7]
	.loc 2 816 7 view .LVU1869
	add	x16, x9, x16, lsl 29
.LBE2359:
.LBE2414:
.LBE2632:
.LBB2633:
.LBB2543:
.LBB2489:
	.loc 2 808 7 view .LVU1870
	add	x18, x18, x11
.LBE2489:
.LBE2543:
.LBE2633:
.LBB2634:
.LBB2415:
.LBB2360:
	.loc 2 816 7 view .LVU1871
	add	x16, x16, x15
.LBE2360:
.LBE2415:
.LBE2634:
.LBB2635:
.LBB2303:
.LBB2249:
	.loc 2 794 10 view .LVU1872
	umov	w22, v4.b[8]
.LBE2249:
.LBE2303:
.LBE2635:
.LBB2636:
.LBB2416:
.LBB2361:
	.loc 2 808 7 view .LVU1873
	umov	w15, v3.b[0]
	.loc 2 794 10 view .LVU1874
	umov	w11, v3.b[8]
.LBE2361:
.LBE2416:
.LBE2636:
.LBB2637:
.LBB2544:
.LBB2490:
	.loc 2 784 7 view .LVU1875
	lsl	x1, x1, 42
.LBE2490:
.LBE2544:
.LBE2637:
.LBB2638:
.LBB2417:
.LBB2362:
	.loc 2 808 7 view .LVU1876
	add	x13, x13, x20
.LBE2362:
.LBE2417:
.LBE2638:
.LBB2639:
.LBB2034:
.LBB1797:
.LBB1714:
	.loc 4 272 22 view .LVU1877
	eor	v2.16b, v2.16b, v16.16b
	.loc 4 271 35 is_stmt 1 view .LVU1878
.LVL156:
	.loc 4 271 24 view .LVU1879
	.loc 4 272 5 view .LVU1880
	.loc 4 271 35 view .LVU1881
	.loc 4 271 24 view .LVU1882
	.loc 4 272 5 view .LVU1883
.LBE1714:
.LBE1797:
.LBE2034:
.LBE2639:
.LBB2640:
.LBB2545:
.LBB2491:
	.loc 2 825 7 is_stmt 0 view .LVU1884
	add	x17, x1, x17, lsl 50
.LBE2491:
.LBE2545:
.LBE2640:
.LBB2641:
.LBB2035:
.LBB1798:
.LBB1715:
	.loc 4 272 31 view .LVU1885
	and	v6.16b, v6.16b, v8.16b
.LBE1715:
.LBE1798:
.LBE2035:
.LBE2641:
.LBB2642:
.LBB2304:
.LBB2250:
	.loc 2 795 7 view .LVU1886
	lsl	x12, x12, 5
	.loc 2 808 7 view .LVU1887
	umov	w1, v4.b[0]
.LBE2250:
.LBE2304:
.LBE2642:
.LBB2643:
.LBB2418:
.LBB2363:
	.loc 2 795 7 view .LVU1888
	lsl	x3, x3, 5
.LBE2363:
.LBE2418:
.LBE2643:
.LBB2644:
.LBB2036:
.LBB1799:
.LBB1716:
	.loc 4 272 22 view .LVU1889
	eor	v0.16b, v0.16b, v17.16b
.LBE1716:
.LBE1799:
.LBE2036:
.LBE2644:
.LBB2645:
.LBB2305:
.LBB2251:
	.loc 2 816 7 view .LVU1890
	add	x22, x12, x22, lsl 13
.LBE2251:
.LBE2305:
.LBE2645:
.LBB2646:
.LBB2419:
.LBB2364:
	.loc 2 808 7 view .LVU1891
	add	x13, x13, w15, uxtb
.LBE2364:
.LBE2419:
.LBE2646:
.LBB2647:
.LBB2306:
.LBB2252:
	.loc 2 788 10 view .LVU1892
	umov	w9, v4.b[14]
.LBE2252:
.LBE2306:
.LBE2647:
.LBB2648:
.LBB2546:
.LBB2492:
	umov	w15, v5.b[14]
.LBE2492:
.LBE2546:
.LBE2648:
.LBB2649:
.LBB2420:
.LBB2365:
	.loc 2 816 7 view .LVU1893
	add	x11, x3, x11, lsl 13
.LBE2365:
.LBE2420:
.LBE2649:
.LBB2650:
.LBB2307:
.LBB2253:
	.loc 2 787 10 view .LVU1894
	umov	w23, v4.b[15]
	.loc 2 784 10 view .LVU1895
	umov	w12, v2.b[2]
.LBE2253:
.LBE2307:
.LBE2650:
.LBB2651:
.LBB2037:
.LBB1800:
.LBB1717:
	.loc 4 272 22 view .LVU1896
	eor	v0.16b, v0.16b, v6.16b
	.loc 4 271 35 is_stmt 1 view .LVU1897
.LVL157:
	.loc 4 271 24 view .LVU1898
.LBE1717:
	.loc 4 274 3 view .LVU1899
	.loc 4 275 3 view .LVU1900
	.loc 4 277 3 view .LVU1901
.LBE1800:
	.loc 4 277 8 view .LVU1902
	.loc 4 277 24 view .LVU1903
	.loc 4 277 24 is_stmt 0 view .LVU1904
.LBE2037:
	.loc 1 752 21 is_stmt 1 view .LVU1905
.LBE2651:
	.loc 1 758 3 view .LVU1906
	.loc 1 759 3 view .LVU1907
.LBB2652:
.LBI2226:
	.loc 1 159 13 view .LVU1908
	.loc 1 161 3 view .LVU1909
	.loc 1 162 3 view .LVU1910
.LBB2308:
.LBI2227:
	.loc 2 699 36 view .LVU1911
.LBB2254:
	.loc 2 700 3 view .LVU1912
	.loc 2 701 3 view .LVU1913
	.loc 2 702 3 view .LVU1914
	.loc 2 703 3 view .LVU1915
	.loc 2 704 3 view .LVU1916
	.loc 2 705 3 view .LVU1917
	.loc 2 706 3 view .LVU1918
	.loc 2 707 3 view .LVU1919
	.loc 2 708 3 view .LVU1920
	.loc 2 709 3 view .LVU1921
	.loc 2 710 3 view .LVU1922
	.loc 2 711 3 view .LVU1923
	.loc 2 712 3 view .LVU1924
	.loc 2 713 3 view .LVU1925
	.loc 2 714 3 view .LVU1926
	.loc 2 715 3 view .LVU1927
	.loc 2 716 3 view .LVU1928
	.loc 2 717 3 view .LVU1929
	.loc 2 718 3 view .LVU1930
	.loc 2 719 3 view .LVU1931
	.loc 2 720 3 view .LVU1932
	.loc 2 721 3 view .LVU1933
	.loc 2 722 3 view .LVU1934
	.loc 2 723 3 view .LVU1935
	.loc 2 724 3 view .LVU1936
	.loc 2 725 3 view .LVU1937
	.loc 2 726 3 view .LVU1938
	.loc 2 727 3 view .LVU1939
	.loc 2 728 3 view .LVU1940
	.loc 2 729 3 view .LVU1941
	.loc 2 730 3 view .LVU1942
	.loc 2 731 3 view .LVU1943
	.loc 2 732 3 view .LVU1944
	.loc 2 733 3 view .LVU1945
	.loc 2 734 3 view .LVU1946
	.loc 2 735 3 view .LVU1947
	.loc 2 736 3 view .LVU1948
	.loc 2 737 3 view .LVU1949
	.loc 2 738 3 view .LVU1950
	.loc 2 739 3 view .LVU1951
	.loc 2 740 3 view .LVU1952
	.loc 2 741 3 view .LVU1953
	.loc 2 742 3 view .LVU1954
	.loc 2 743 3 view .LVU1955
	.loc 2 744 3 view .LVU1956
	.loc 2 745 3 view .LVU1957
	.loc 2 746 3 view .LVU1958
	.loc 2 747 3 view .LVU1959
	.loc 2 748 3 view .LVU1960
	.loc 2 749 3 view .LVU1961
	.loc 2 750 3 view .LVU1962
	.loc 2 751 3 view .LVU1963
	.loc 2 752 3 view .LVU1964
	.loc 2 753 3 view .LVU1965
	.loc 2 754 3 view .LVU1966
	.loc 2 755 3 view .LVU1967
	.loc 2 756 3 view .LVU1968
	.loc 2 757 3 view .LVU1969
	.loc 2 758 3 view .LVU1970
	.loc 2 759 3 view .LVU1971
	.loc 2 760 3 view .LVU1972
	.loc 2 761 3 view .LVU1973
	.loc 2 762 3 view .LVU1974
	.loc 2 763 3 view .LVU1975
	.loc 2 764 3 view .LVU1976
	.loc 2 765 3 view .LVU1977
	.loc 2 766 3 view .LVU1978
	.loc 2 767 3 view .LVU1979
	.loc 2 768 3 view .LVU1980
	.loc 2 769 3 view .LVU1981
	.loc 2 770 3 view .LVU1982
	.loc 2 771 3 view .LVU1983
	.loc 2 772 3 view .LVU1984
	.loc 2 773 3 view .LVU1985
	.loc 2 774 3 view .LVU1986
	.loc 2 775 3 view .LVU1987
	.loc 2 776 3 view .LVU1988
	.loc 2 777 3 view .LVU1989
	.loc 2 778 3 view .LVU1990
	.loc 2 779 3 view .LVU1991
	.loc 2 780 3 view .LVU1992
	.loc 2 781 3 view .LVU1993
	.loc 2 782 3 view .LVU1994
	.loc 2 783 3 view .LVU1995
	.loc 2 784 3 view .LVU1996
	.loc 2 785 3 view .LVU1997
	.loc 2 786 3 view .LVU1998
	.loc 2 787 3 view .LVU1999
	.loc 2 788 3 view .LVU2000
	.loc 2 789 3 view .LVU2001
	.loc 2 790 3 view .LVU2002
	.loc 2 791 3 view .LVU2003
	.loc 2 792 3 view .LVU2004
	.loc 2 793 3 view .LVU2005
	.loc 2 794 3 view .LVU2006
	.loc 2 795 3 view .LVU2007
	.loc 2 796 3 view .LVU2008
	.loc 2 797 3 view .LVU2009
	.loc 2 798 3 view .LVU2010
	.loc 2 799 3 view .LVU2011
	.loc 2 800 3 view .LVU2012
	.loc 2 801 3 view .LVU2013
	.loc 2 802 3 view .LVU2014
	.loc 2 803 3 view .LVU2015
	.loc 2 804 3 view .LVU2016
	.loc 2 805 3 view .LVU2017
	.loc 2 806 3 view .LVU2018
	.loc 2 807 3 view .LVU2019
	.loc 2 808 3 view .LVU2020
	.loc 2 816 7 is_stmt 0 view .LVU2021
	add	x4, x4, x22
.LBE2254:
.LBE2308:
.LBE2652:
.LBB2653:
.LBB2421:
.LBB2366:
	add	x11, x16, x11
.LBE2366:
.LBE2421:
.LBE2653:
.LBB2654:
.LBB2547:
.LBB2493:
	.loc 2 787 10 view .LVU2022
	umov	w16, v5.b[15]
.LBE2493:
.LBE2547:
.LBE2654:
.LBB2655:
.LBB2309:
.LBB2255:
	.loc 2 816 7 view .LVU2023
	add	x4, x4, x19, lsr 51
	.loc 2 783 10 view .LVU2024
	umov	w25, v2.b[3]
.LVL158:
	.loc 2 808 7 view .LVU2025
	add	x1, x19, w1, uxtb
.LVL159:
	.loc 2 809 3 is_stmt 1 view .LVU2026
	.loc 2 810 3 view .LVU2027
	.loc 2 811 3 view .LVU2028
	.loc 2 812 3 view .LVU2029
	.loc 2 813 3 view .LVU2030
	.loc 2 814 3 view .LVU2031
	.loc 2 815 3 view .LVU2032
	.loc 2 816 3 view .LVU2033
	.loc 2 817 3 view .LVU2034
	.loc 2 818 3 view .LVU2035
	.loc 2 819 3 view .LVU2036
	.loc 2 820 3 view .LVU2037
	.loc 2 821 3 view .LVU2038
	.loc 2 822 3 view .LVU2039
	.loc 2 823 3 view .LVU2040
	.loc 2 824 3 view .LVU2041
	.loc 2 825 3 view .LVU2042
	.loc 2 785 10 is_stmt 0 view .LVU2043
	umov	w2, v2.b[1]
	.loc 2 809 7 view .LVU2044
	and	x1, x1, 2251799813685247
.LVL160:
	.loc 2 842 11 view .LVU2045
	str	x1, [sp, 296]
	.loc 2 818 23 view .LVU2046
	lsr	x1, x4, 51
.LVL161:
	.loc 2 817 7 view .LVU2047
	and	x4, x4, 2251799813685247
.LVL162:
	.loc 2 778 9 view .LVU2048
	umov	w20, v2.b[8]
.LBE2255:
.LBE2309:
.LBE2655:
.LBB2656:
.LBB2422:
.LBB2367:
	.loc 2 784 10 view .LVU2049
	umov	w21, v0.b[2]
.LBE2367:
.LBE2422:
.LBE2656:
.LBB2657:
.LBB2310:
.LBB2256:
	.loc 2 788 7 view .LVU2050
	lsl	x9, x9, 10
.LBE2256:
.LBE2310:
.LBE2657:
.LBB2658:
.LBB2548:
.LBB2494:
	lsl	x15, x15, 10
.LBE2494:
.LBE2548:
.LBE2658:
.LBB2659:
.LBB2311:
.LBB2257:
	.loc 2 843 11 view .LVU2051
	str	x4, [sp, 304]
	.loc 2 786 7 view .LVU2052
	fmov	x4, d2
.LVL163:
	.loc 2 786 7 view .LVU2053
.LBE2257:
.LBE2311:
.LBE2659:
.LBB2660:
.LBB2549:
.LBB2495:
	.loc 2 808 7 view .LVU2054
	umov	w19, v5.b[0]
.LVL164:
	.loc 2 808 7 view .LVU2055
.LBE2495:
.LBE2549:
.LBE2660:
.LBB2661:
.LBB2312:
.LBB2258:
	.loc 2 825 7 view .LVU2056
	add	x23, x9, x23, lsl 18
.LBE2258:
.LBE2312:
.LBE2661:
.LBB2662:
.LBB2550:
.LBB2496:
	add	x16, x15, x16, lsl 18
.LBE2496:
.LBE2550:
.LBE2662:
.LBB2663:
.LBB2313:
.LBB2259:
	.loc 2 780 10 view .LVU2057
	umov	w30, v2.b[6]
	.loc 2 777 9 view .LVU2058
	umov	w9, v2.b[9]
.LBE2259:
.LBE2313:
.LBE2663:
.LBB2664:
.LBB2423:
.LBB2368:
	.loc 2 783 10 view .LVU2059
	umov	w15, v0.b[3]
.LBE2368:
.LBE2423:
.LBE2664:
.LBB2665:
.LBB2314:
.LBB2260:
	.loc 2 784 7 view .LVU2060
	lsl	x12, x12, 42
	.loc 2 786 7 view .LVU2061
	ubfiz	x4, x4, 26, 8
	.loc 2 825 7 view .LVU2062
	add	x25, x12, x25, lsl 50
	.loc 2 779 9 view .LVU2063
	umov	w12, v2.b[7]
	.loc 2 789 10 view .LVU2064
	umov	w24, v4.b[13]
.LVL165:
	.loc 2 782 10 view .LVU2065
	umov	w22, v2.b[4]
.LVL166:
	.loc 2 778 6 view .LVU2066
	lsl	x20, x20, 39
.LBE2260:
.LBE2314:
.LBE2665:
.LBB2666:
.LBB2424:
.LBB2369:
	.loc 2 784 7 view .LVU2067
	lsl	x21, x21, 42
.LBE2369:
.LBE2424:
.LBE2666:
.LBB2667:
.LBB2315:
.LBB2261:
	.loc 2 825 7 view .LVU2068
	add	x2, x4, x2, lsl 34
.LBE2261:
.LBE2315:
.LBE2667:
.LBB2668:
.LBB2551:
.LBB2497:
	.loc 2 808 7 view .LVU2069
	add	x26, x18, w19, uxtb
.LBE2497:
.LBE2551:
.LBE2668:
.LBB2669:
.LBB2316:
.LBB2262:
	.loc 2 833 7 view .LVU2070
	add	x9, x20, x9, lsl 47
.LBE2262:
.LBE2316:
.LBE2669:
.LBB2670:
.LBB2425:
.LBB2370:
	.loc 2 825 7 view .LVU2071
	add	x15, x21, x15, lsl 50
.LBE2370:
.LBE2425:
.LBE2670:
.LBB2671:
.LBB2552:
.LBB2498:
	.loc 2 780 10 view .LVU2072
	umov	w20, v1.b[6]
	.loc 2 778 9 view .LVU2073
	umov	w19, v1.b[8]
.LBE2498:
.LBE2552:
.LBE2671:
.LBB2672:
.LBB2317:
.LBB2263:
	.loc 2 781 10 view .LVU2074
	umov	w21, v2.b[5]
	.loc 2 780 7 view .LVU2075
	lsl	x30, x30, 23
	.loc 2 825 7 view .LVU2076
	add	x2, x2, x25
	.loc 2 833 7 view .LVU2077
	add	x12, x30, x12, lsl 31
.LBE2263:
.LBE2317:
.LBE2672:
.LBB2673:
.LBB2426:
.LBB2371:
	.loc 2 780 10 view .LVU2078
	umov	w25, v0.b[6]
.LBE2371:
.LBE2426:
.LBE2673:
.LBB2674:
.LBB2553:
.LBB2499:
	.loc 2 779 9 view .LVU2079
	umov	w30, v1.b[7]
.LBE2499:
.LBE2553:
.LBE2674:
.LBB2675:
.LBB2318:
.LBB2264:
	.loc 2 825 7 view .LVU2080
	add	x2, x2, x23
.LBE2264:
.LBE2318:
.LBE2675:
.LBB2676:
.LBB2554:
.LBB2500:
	.loc 2 777 9 view .LVU2081
	umov	w23, v1.b[9]
.LBE2500:
.LBE2554:
.LBE2676:
.LBB2677:
.LBB2319:
.LBB2265:
	.loc 2 825 7 view .LVU2082
	add	x24, x1, x24, lsl 2
	.loc 2 782 7 view .LVU2083
	lsl	x22, x22, 7
	.loc 2 825 7 view .LVU2084
	add	x4, x2, x24
	.loc 2 833 7 view .LVU2085
	add	x12, x12, x9
	add	x21, x22, x21, lsl 15
.LBE2265:
.LBE2319:
.LBE2677:
.LBB2678:
.LBB2555:
.LBB2501:
	.loc 2 782 10 view .LVU2086
	umov	w24, v1.b[4]
	.loc 2 780 7 view .LVU2087
	lsl	x20, x20, 23
	.loc 2 778 6 view .LVU2088
	lsl	x19, x19, 39
	.loc 2 833 7 view .LVU2089
	add	x22, x19, x23, lsl 47
.LBE2501:
.LBE2555:
.LBE2678:
.LBB2679:
.LBB2320:
.LBB2266:
	add	x2, x12, x21
.LBE2266:
.LBE2320:
.LBE2679:
.LBB2680:
.LBB2427:
.LBB2372:
	.loc 2 780 7 view .LVU2090
	lsl	x23, x25, 23
.LBE2372:
.LBE2427:
.LBE2680:
.LBB2681:
.LBB2556:
.LBB2502:
	.loc 2 833 7 view .LVU2091
	add	x12, x20, x30, lsl 31
.LBE2502:
.LBE2556:
.LBE2681:
.LBB2682:
.LBB2428:
.LBB2373:
	.loc 2 779 9 view .LVU2092
	umov	w25, v0.b[7]
.LBE2373:
.LBE2428:
.LBE2682:
.LBB2683:
.LBB2557:
.LBB2503:
	.loc 2 781 10 view .LVU2093
	umov	w20, v1.b[5]
.LBE2503:
.LBE2557:
.LBE2683:
.LBB2684:
.LBB2321:
.LBB2267:
	.loc 2 833 7 view .LVU2094
	add	x2, x2, x4, lsr 51
.LBE2267:
.LBE2321:
.LBE2684:
.LBB2685:
.LBB2558:
.LBB2504:
	.loc 2 782 7 view .LVU2095
	lsl	x24, x24, 7
.LBE2504:
.LBE2558:
.LBE2685:
.LBB2686:
.LBB2322:
.LBB2268:
	.loc 2 826 7 view .LVU2096
	and	x4, x4, 2251799813685247
.LBE2268:
.LBE2322:
.LBE2686:
.LBB2687:
.LBB2559:
.LBB2505:
	.loc 2 785 10 view .LVU2097
	umov	w3, v1.b[1]
	.loc 2 789 10 view .LVU2098
	umov	w1, v5.b[13]
.LVL167:
	.loc 2 816 7 view .LVU2099
	add	x14, x14, x18, lsr 51
	.loc 2 809 7 view .LVU2100
	and	x26, x26, 2251799813685247
.LBE2505:
.LBE2559:
.LBE2687:
.LBB2688:
.LBB2429:
.LBB2374:
	.loc 2 788 10 view .LVU2101
	umov	w18, v3.b[14]
.LBE2374:
.LBE2429:
.LBE2688:
.LBB2689:
.LBB2323:
.LBB2269:
	.loc 2 826 3 is_stmt 1 view .LVU2102
	.loc 2 827 3 view .LVU2103
	.loc 2 828 3 view .LVU2104
.LVL168:
	.loc 2 829 3 view .LVU2105
	.loc 2 830 3 view .LVU2106
	.loc 2 831 3 view .LVU2107
	.loc 2 832 3 view .LVU2108
	.loc 2 833 3 view .LVU2109
	.loc 2 834 3 view .LVU2110
	.loc 2 835 3 view .LVU2111
	.loc 2 836 3 view .LVU2112
	.loc 2 837 3 view .LVU2113
	.loc 2 838 3 view .LVU2114
	.loc 2 839 3 view .LVU2115
	.loc 2 840 3 view .LVU2116
	.loc 2 841 3 view .LVU2117
.LBE2269:
.LBE2323:
.LBE2689:
.LBB2690:
.LBB2560:
.LBB2506:
	.loc 2 833 7 is_stmt 0 view .LVU2118
	add	x20, x24, x20, lsl 15
.LBE2506:
.LBE2560:
.LBE2690:
.LBB2691:
.LBB2324:
.LBB2270:
	.loc 2 834 7 view .LVU2119
	and	x24, x2, 2251799813685247
.LVL169:
	.loc 2 845 11 view .LVU2120
	stp	x4, x24, [sp, 312]
.LBE2270:
.LBE2324:
.LBE2691:
.LBB2692:
.LBB2430:
.LBB2375:
	.loc 2 833 7 view .LVU2121
	add	x4, x23, x25, lsl 31
.LBE2375:
.LBE2430:
.LBE2692:
.LBB2693:
.LBB2561:
.LBB2507:
	.loc 2 786 7 view .LVU2122
	fmov	x23, d1
	.loc 2 842 11 view .LVU2123
	str	x26, [sp, 336]
.LBE2507:
.LBE2561:
.LBE2693:
.LBB2694:
.LBB2431:
.LBB2376:
	.loc 2 787 10 view .LVU2124
	umov	w26, v3.b[15]
	.loc 2 785 10 view .LVU2125
	umov	w9, v0.b[1]
	.loc 2 778 9 view .LVU2126
	umov	w21, v0.b[8]
	.loc 2 788 7 view .LVU2127
	lsl	x18, x18, 10
.LBE2376:
.LBE2431:
.LBE2694:
.LBB2695:
.LBB2562:
.LBB2508:
	.loc 2 833 7 view .LVU2128
	add	x12, x12, x22
	.loc 2 786 7 view .LVU2129
	ubfiz	x23, x23, 26, 8
.LBE2508:
.LBE2562:
.LBE2695:
.LBB2696:
.LBB2432:
.LBB2377:
	.loc 2 777 9 view .LVU2130
	umov	w22, v0.b[9]
.LBE2377:
.LBE2432:
.LBE2696:
.LBB2697:
.LBB2563:
.LBB2509:
	.loc 2 825 7 view .LVU2131
	add	x3, x23, x3, lsl 34
	.loc 2 818 23 view .LVU2132
	lsr	x23, x14, 51
	.loc 2 825 7 view .LVU2133
	add	x3, x3, x17
	add	x1, x23, x1, lsl 2
	add	x3, x3, x16
.LBE2509:
.LBE2563:
.LBE2697:
.LBB2698:
.LBB2433:
.LBB2378:
	add	x19, x18, x26, lsl 18
.LBE2378:
.LBE2433:
.LBE2698:
.LBB2699:
.LBB2564:
.LBB2510:
	add	x3, x3, x1
.LBE2510:
.LBE2564:
.LBE2699:
.LBB2700:
.LBB2434:
.LBB2379:
	.loc 2 786 7 view .LVU2134
	fmov	x1, d0
	.loc 2 789 10 view .LVU2135
	umov	w18, v3.b[13]
.LBE2379:
.LBE2434:
.LBE2700:
.LBB2701:
.LBB2565:
.LBB2511:
	.loc 2 833 7 view .LVU2136
	add	x12, x12, x20
.LBE2511:
.LBE2565:
.LBE2701:
.LBB2702:
.LBB2435:
.LBB2380:
	.loc 2 782 10 view .LVU2137
	umov	w20, v0.b[4]
	.loc 2 781 10 view .LVU2138
	umov	w16, v0.b[5]
	.loc 2 816 7 view .LVU2139
	add	x11, x11, x13, lsr 51
	.loc 2 778 6 view .LVU2140
	lsl	x21, x21, 39
	.loc 2 786 7 view .LVU2141
	ubfiz	x1, x1, 26, 8
	.loc 2 833 7 view .LVU2142
	add	x17, x21, x22, lsl 47
	.loc 2 825 7 view .LVU2143
	add	x1, x1, x9, lsl 34
	.loc 2 818 23 view .LVU2144
	lsr	x9, x11, 51
	.loc 2 825 7 view .LVU2145
	add	x1, x1, x15
	add	x18, x9, x18, lsl 2
	add	x1, x1, x19
	.loc 2 782 7 view .LVU2146
	lsl	x9, x20, 7
	.loc 2 825 7 view .LVU2147
	add	x1, x1, x18
	.loc 2 833 7 view .LVU2148
	add	x9, x9, x16, lsl 15
	add	x4, x4, x17
.LBE2380:
.LBE2435:
.LBE2702:
.LBB2703:
.LBB2566:
.LBB2512:
	add	x12, x12, x3, lsr 51
.LBE2512:
.LBE2566:
.LBE2703:
.LBB2704:
.LBB2436:
.LBB2381:
	add	x4, x4, x9
.LBE2381:
.LBE2436:
.LBE2704:
.LBB2705:
.LBB2567:
.LBB2513:
	.loc 2 817 7 view .LVU2149
	and	x14, x14, 2251799813685247
	.loc 2 826 7 view .LVU2150
	and	x3, x3, 2251799813685247
	.loc 2 844 11 view .LVU2151
	stp	x14, x3, [sp, 344]
.LBE2513:
.LBE2567:
.LBE2705:
.LBB2706:
.LBB2437:
.LBB2382:
	.loc 2 833 7 view .LVU2152
	add	x14, x4, x1, lsr 51
.LBE2382:
.LBE2437:
.LBE2706:
.LBB2707:
.LBB2708:
.LBB2709:
	.loc 3 81 10 view .LVU2153
	add	x3, sp, 296
.LVL170:
	.loc 3 81 10 view .LVU2154
	add	x4, sp, 512
.LVL171:
	.loc 3 81 10 view .LVU2155
.LBE2709:
.LBE2708:
.LBE2707:
.LBB2714:
.LBB2438:
.LBB2383:
	.loc 2 809 7 view .LVU2156
	and	x13, x13, 2251799813685247
.LBE2383:
.LBE2438:
.LBE2714:
.LBB2715:
.LBB2568:
.LBB2514:
	.loc 2 834 7 view .LVU2157
	and	x9, x12, 2251799813685247
	.loc 2 845 11 view .LVU2158
	str	x9, [sp, 360]
.LBE2514:
.LBE2568:
.LBE2715:
.LBB2716:
.LBB2082:
.LBB2073:
	.loc 2 462 6 view .LVU2159
	sub	x8, x8, x13
.LBE2073:
.LBE2082:
.LBE2716:
.LBB2717:
.LBB2712:
.LBB2710:
	.loc 3 81 10 view .LVU2160
	ldp	q6, q7, [x3]
.LBE2710:
.LBE2712:
.LBE2717:
.LBB2718:
.LBB2439:
.LBB2384:
	.loc 2 817 7 view .LVU2161
	and	x11, x11, 2251799813685247
	.loc 2 843 11 view .LVU2162
	stp	x13, x11, [sp, 376]
.LBE2384:
.LBE2439:
.LBE2718:
.LBB2719:
.LBB2325:
.LBB2271:
	.loc 2 774 9 view .LVU2163
	umov	w13, v2.b[12]
	.loc 2 773 9 view .LVU2164
	umov	w4, v2.b[13]
.LVL172:
	.loc 2 773 9 view .LVU2165
.LBE2271:
.LBE2325:
.LBE2719:
.LBB2720:
.LBB2220:
.LBB2217:
	.loc 3 81 10 view .LVU2166
	add	x15, sp, 512
.LVL173:
	.loc 3 81 10 view .LVU2167
	add	x3, sp, 376
.LVL174:
	.loc 3 81 10 view .LVU2168
.LBE2217:
.LBE2220:
.LBE2720:
.LBB2721:
.LBB2440:
.LBB2385:
	.loc 2 834 7 view .LVU2169
	and	x9, x14, 2251799813685247
	.loc 2 826 7 view .LVU2170
	and	x1, x1, 2251799813685247
	.loc 2 845 11 view .LVU2171
	stp	x1, x9, [sp, 392]
.LBE2385:
.LBE2440:
.LBE2721:
.LBB2722:
.LBB2326:
.LBB2272:
	.loc 2 772 9 view .LVU2172
	umov	w22, v2.b[14]
.LBE2272:
.LBE2326:
.LBE2722:
.LBB2723:
.LBB2569:
.LBB2515:
	.loc 2 774 9 view .LVU2173
	umov	w21, v1.b[12]
	.loc 2 772 9 view .LVU2174
	umov	w20, v1.b[14]
.LBE2515:
.LBE2569:
.LBE2723:
.LBB2724:
.LBB2327:
.LBB2273:
	.loc 2 771 9 view .LVU2175
	umov	w19, v2.b[15]
.LBE2273:
.LBE2327:
.LBE2724:
.LBB2725:
.LBB2221:
.LBB2218:
	.loc 3 81 10 view .LVU2176
	ldp	q8, q9, [x3]
.LBE2218:
.LBE2221:
.LBE2725:
.LBB2726:
.LBB2328:
.LBB2274:
	.loc 2 776 9 view .LVU2177
	umov	w18, v2.b[10]
.LBE2274:
.LBE2328:
.LBE2726:
.LBB2727:
.LBB2570:
.LBB2516:
	.loc 2 771 9 view .LVU2178
	umov	w17, v1.b[15]
	.loc 2 776 9 view .LVU2179
	umov	w16, v1.b[10]
	.loc 2 773 9 view .LVU2180
	umov	w3, v1.b[13]
.LBE2516:
.LBE2570:
.LBE2727:
.LBB2728:
.LBB2329:
.LBB2275:
	.loc 2 774 6 view .LVU2181
	lsl	x13, x13, 20
	.loc 2 775 9 view .LVU2182
	umov	w15, v2.b[11]
.LVL175:
	.loc 2 841 7 view .LVU2183
	add	x4, x13, x4, lsl 28
.LBE2275:
.LBE2329:
.LBE2728:
.LBB2729:
.LBB2571:
.LBB2517:
	.loc 2 775 9 view .LVU2184
	umov	w13, v1.b[11]
.LBE2517:
.LBE2571:
.LBE2729:
.LBB2730:
.LBB2330:
.LBB2276:
	.loc 2 772 6 view .LVU2185
	lsl	x22, x22, 36
.LBE2276:
.LBE2330:
.LBE2730:
.LBB2731:
.LBB2572:
.LBB2518:
	.loc 2 774 6 view .LVU2186
	lsl	x21, x21, 20
	.loc 2 772 6 view .LVU2187
	lsl	x20, x20, 36
.LBE2518:
.LBE2572:
.LBE2731:
.LBB2732:
.LBB2331:
.LBB2277:
	.loc 2 841 7 view .LVU2188
	add	x19, x22, x19, lsl 44
.LBE2277:
.LBE2331:
.LBE2732:
.LBB2733:
.LBB2573:
.LBB2519:
	add	x17, x20, x17, lsl 44
.LBE2519:
.LBE2573:
.LBE2733:
.LBB2734:
.LBB2332:
.LBB2278:
	.loc 2 776 6 view .LVU2189
	lsl	x18, x18, 4
.LBE2278:
.LBE2332:
.LBE2734:
.LBB2735:
.LBB2574:
.LBB2520:
	lsl	x16, x16, 4
	.loc 2 841 7 view .LVU2190
	add	x3, x21, x3, lsl 28
.LBE2520:
.LBE2574:
.LBE2735:
.LBB2736:
.LBB2333:
.LBB2279:
	add	x15, x18, x15, lsl 12
.LBE2279:
.LBE2333:
.LBE2736:
.LBB2737:
.LBB2575:
.LBB2521:
	add	x13, x16, x13, lsl 12
.LBE2521:
.LBE2575:
.LBE2737:
.LBB2738:
.LBB2334:
.LBB2280:
	add	x4, x4, x19
.LBE2280:
.LBE2334:
.LBE2738:
.LBB2739:
.LBB2576:
.LBB2522:
	add	x3, x3, x17
.LBE2522:
.LBE2576:
.LBE2739:
.LBB2740:
.LBB2335:
.LBB2281:
	add	x4, x4, x15
.LBE2281:
.LBE2335:
.LBE2740:
.LBB2741:
.LBB2211:
.LBB2209:
	.loc 3 81 10 view .LVU2191
	ldp	q4, q5, [sp, 336]
.LVL176:
	.loc 3 81 10 view .LVU2192
.LBE2209:
.LBE2211:
.LBE2741:
.LBB2742:
.LBB2577:
.LBB2523:
	.loc 2 841 7 view .LVU2193
	add	x3, x3, x13
	add	x3, x3, x12, lsr 51
.LBE2523:
.LBE2577:
.LBE2742:
.LBB2743:
.LBB2336:
.LBB2282:
	add	x2, x4, x2, lsr 51
.LVL177:
	.loc 2 842 3 is_stmt 1 view .LVU2194
	.loc 2 843 3 view .LVU2195
	.loc 2 844 3 view .LVU2196
	.loc 2 845 3 view .LVU2197
	.loc 2 846 3 view .LVU2198
	.loc 2 846 3 is_stmt 0 view .LVU2199
.LBE2282:
.LBE2336:
	.loc 1 163 3 is_stmt 1 view .LVU2200
	.loc 1 163 3 view .LVU2201
	.loc 1 163 3 view .LVU2202
	.loc 1 163 3 is_stmt 0 view .LVU2203
.LBE2743:
	.loc 1 760 3 is_stmt 1 view .LVU2204
.LBB2744:
.LBI2468:
	.loc 1 159 13 view .LVU2205
	.loc 1 161 3 view .LVU2206
	.loc 1 162 3 view .LVU2207
.LBB2578:
.LBI2469:
	.loc 2 699 36 view .LVU2208
.LBB2524:
	.loc 2 700 3 view .LVU2209
	.loc 2 701 3 view .LVU2210
	.loc 2 702 3 view .LVU2211
	.loc 2 703 3 view .LVU2212
	.loc 2 704 3 view .LVU2213
	.loc 2 705 3 view .LVU2214
	.loc 2 706 3 view .LVU2215
	.loc 2 707 3 view .LVU2216
	.loc 2 708 3 view .LVU2217
	.loc 2 709 3 view .LVU2218
	.loc 2 710 3 view .LVU2219
	.loc 2 711 3 view .LVU2220
	.loc 2 712 3 view .LVU2221
	.loc 2 713 3 view .LVU2222
	.loc 2 714 3 view .LVU2223
	.loc 2 715 3 view .LVU2224
	.loc 2 716 3 view .LVU2225
	.loc 2 717 3 view .LVU2226
	.loc 2 718 3 view .LVU2227
	.loc 2 719 3 view .LVU2228
	.loc 2 720 3 view .LVU2229
	.loc 2 721 3 view .LVU2230
	.loc 2 722 3 view .LVU2231
	.loc 2 723 3 view .LVU2232
	.loc 2 724 3 view .LVU2233
	.loc 2 725 3 view .LVU2234
	.loc 2 726 3 view .LVU2235
	.loc 2 727 3 view .LVU2236
	.loc 2 728 3 view .LVU2237
	.loc 2 729 3 view .LVU2238
	.loc 2 730 3 view .LVU2239
	.loc 2 731 3 view .LVU2240
	.loc 2 732 3 view .LVU2241
	.loc 2 733 3 view .LVU2242
	.loc 2 734 3 view .LVU2243
	.loc 2 735 3 view .LVU2244
	.loc 2 736 3 view .LVU2245
	.loc 2 737 3 view .LVU2246
	.loc 2 738 3 view .LVU2247
	.loc 2 739 3 view .LVU2248
	.loc 2 740 3 view .LVU2249
	.loc 2 741 3 view .LVU2250
	.loc 2 742 3 view .LVU2251
	.loc 2 743 3 view .LVU2252
	.loc 2 744 3 view .LVU2253
	.loc 2 745 3 view .LVU2254
	.loc 2 746 3 view .LVU2255
	.loc 2 747 3 view .LVU2256
	.loc 2 748 3 view .LVU2257
	.loc 2 749 3 view .LVU2258
	.loc 2 750 3 view .LVU2259
	.loc 2 751 3 view .LVU2260
	.loc 2 752 3 view .LVU2261
	.loc 2 753 3 view .LVU2262
	.loc 2 754 3 view .LVU2263
	.loc 2 755 3 view .LVU2264
	.loc 2 756 3 view .LVU2265
	.loc 2 757 3 view .LVU2266
	.loc 2 758 3 view .LVU2267
	.loc 2 759 3 view .LVU2268
	.loc 2 760 3 view .LVU2269
	.loc 2 761 3 view .LVU2270
	.loc 2 762 3 view .LVU2271
	.loc 2 763 3 view .LVU2272
	.loc 2 764 3 view .LVU2273
	.loc 2 765 3 view .LVU2274
	.loc 2 766 3 view .LVU2275
	.loc 2 767 3 view .LVU2276
	.loc 2 768 3 view .LVU2277
	.loc 2 769 3 view .LVU2278
	.loc 2 770 3 view .LVU2279
	.loc 2 771 3 view .LVU2280
	.loc 2 772 3 view .LVU2281
	.loc 2 773 3 view .LVU2282
	.loc 2 774 3 view .LVU2283
	.loc 2 775 3 view .LVU2284
	.loc 2 776 3 view .LVU2285
	.loc 2 777 3 view .LVU2286
	.loc 2 778 3 view .LVU2287
	.loc 2 779 3 view .LVU2288
	.loc 2 780 3 view .LVU2289
	.loc 2 781 3 view .LVU2290
	.loc 2 782 3 view .LVU2291
	.loc 2 783 3 view .LVU2292
	.loc 2 784 3 view .LVU2293
	.loc 2 785 3 view .LVU2294
	.loc 2 786 3 view .LVU2295
	.loc 2 787 3 view .LVU2296
	.loc 2 788 3 view .LVU2297
	.loc 2 789 3 view .LVU2298
	.loc 2 790 3 view .LVU2299
	.loc 2 791 3 view .LVU2300
	.loc 2 792 3 view .LVU2301
	.loc 2 793 3 view .LVU2302
	.loc 2 794 3 view .LVU2303
	.loc 2 795 3 view .LVU2304
	.loc 2 796 3 view .LVU2305
	.loc 2 797 3 view .LVU2306
	.loc 2 798 3 view .LVU2307
	.loc 2 799 3 view .LVU2308
	.loc 2 800 3 view .LVU2309
	.loc 2 801 3 view .LVU2310
	.loc 2 802 3 view .LVU2311
	.loc 2 803 3 view .LVU2312
	.loc 2 804 3 view .LVU2313
	.loc 2 805 3 view .LVU2314
	.loc 2 806 3 view .LVU2315
	.loc 2 807 3 view .LVU2316
	.loc 2 808 3 view .LVU2317
	.loc 2 809 3 view .LVU2318
	.loc 2 810 3 view .LVU2319
	.loc 2 811 3 view .LVU2320
	.loc 2 812 3 view .LVU2321
	.loc 2 813 3 view .LVU2322
	.loc 2 814 3 view .LVU2323
	.loc 2 815 3 view .LVU2324
	.loc 2 816 3 view .LVU2325
	.loc 2 817 3 view .LVU2326
	.loc 2 818 3 view .LVU2327
	.loc 2 819 3 view .LVU2328
	.loc 2 820 3 view .LVU2329
	.loc 2 821 3 view .LVU2330
	.loc 2 822 3 view .LVU2331
	.loc 2 823 3 view .LVU2332
	.loc 2 824 3 view .LVU2333
	.loc 2 825 3 view .LVU2334
	.loc 2 826 3 view .LVU2335
	.loc 2 827 3 view .LVU2336
	.loc 2 828 3 view .LVU2337
	.loc 2 829 3 view .LVU2338
	.loc 2 830 3 view .LVU2339
	.loc 2 831 3 view .LVU2340
	.loc 2 832 3 view .LVU2341
	.loc 2 833 3 view .LVU2342
	.loc 2 834 3 view .LVU2343
	.loc 2 835 3 view .LVU2344
	.loc 2 836 3 view .LVU2345
	.loc 2 837 3 view .LVU2346
	.loc 2 838 3 view .LVU2347
	.loc 2 839 3 view .LVU2348
	.loc 2 840 3 view .LVU2349
	.loc 2 841 3 view .LVU2350
	.loc 2 842 3 view .LVU2351
	.loc 2 843 3 view .LVU2352
	.loc 2 844 3 view .LVU2353
	.loc 2 845 3 view .LVU2354
	.loc 2 846 3 view .LVU2355
	.loc 2 846 3 is_stmt 0 view .LVU2356
.LBE2524:
.LBE2578:
	.loc 1 163 3 is_stmt 1 view .LVU2357
	.loc 1 163 3 view .LVU2358
	.loc 1 163 3 view .LVU2359
	.loc 1 163 3 is_stmt 0 view .LVU2360
.LBE2744:
	.loc 1 761 3 is_stmt 1 view .LVU2361
.LBB2745:
.LBI2343:
	.loc 1 159 13 view .LVU2362
	.loc 1 161 3 view .LVU2363
	.loc 1 162 3 view .LVU2364
.LBB2441:
.LBI2344:
	.loc 2 699 36 view .LVU2365
.LBB2386:
	.loc 2 700 3 view .LVU2366
	.loc 2 701 3 view .LVU2367
	.loc 2 702 3 view .LVU2368
	.loc 2 703 3 view .LVU2369
	.loc 2 704 3 view .LVU2370
	.loc 2 705 3 view .LVU2371
	.loc 2 706 3 view .LVU2372
	.loc 2 707 3 view .LVU2373
	.loc 2 708 3 view .LVU2374
	.loc 2 709 3 view .LVU2375
	.loc 2 710 3 view .LVU2376
	.loc 2 711 3 view .LVU2377
	.loc 2 712 3 view .LVU2378
	.loc 2 713 3 view .LVU2379
	.loc 2 714 3 view .LVU2380
	.loc 2 715 3 view .LVU2381
	.loc 2 716 3 view .LVU2382
	.loc 2 717 3 view .LVU2383
	.loc 2 718 3 view .LVU2384
	.loc 2 719 3 view .LVU2385
	.loc 2 720 3 view .LVU2386
	.loc 2 721 3 view .LVU2387
	.loc 2 722 3 view .LVU2388
	.loc 2 723 3 view .LVU2389
	.loc 2 724 3 view .LVU2390
	.loc 2 725 3 view .LVU2391
	.loc 2 726 3 view .LVU2392
	.loc 2 727 3 view .LVU2393
	.loc 2 728 3 view .LVU2394
	.loc 2 729 3 view .LVU2395
	.loc 2 730 3 view .LVU2396
	.loc 2 731 3 view .LVU2397
	.loc 2 732 3 view .LVU2398
	.loc 2 733 3 view .LVU2399
	.loc 2 734 3 view .LVU2400
	.loc 2 735 3 view .LVU2401
	.loc 2 736 3 view .LVU2402
	.loc 2 737 3 view .LVU2403
	.loc 2 738 3 view .LVU2404
	.loc 2 739 3 view .LVU2405
	.loc 2 740 3 view .LVU2406
	.loc 2 741 3 view .LVU2407
	.loc 2 742 3 view .LVU2408
	.loc 2 743 3 view .LVU2409
	.loc 2 744 3 view .LVU2410
	.loc 2 745 3 view .LVU2411
	.loc 2 746 3 view .LVU2412
	.loc 2 747 3 view .LVU2413
	.loc 2 748 3 view .LVU2414
	.loc 2 749 3 view .LVU2415
	.loc 2 750 3 view .LVU2416
	.loc 2 751 3 view .LVU2417
	.loc 2 752 3 view .LVU2418
	.loc 2 753 3 view .LVU2419
	.loc 2 754 3 view .LVU2420
	.loc 2 755 3 view .LVU2421
	.loc 2 756 3 view .LVU2422
	.loc 2 757 3 view .LVU2423
	.loc 2 758 3 view .LVU2424
	.loc 2 759 3 view .LVU2425
	.loc 2 760 3 view .LVU2426
	.loc 2 761 3 view .LVU2427
	.loc 2 762 3 view .LVU2428
	.loc 2 763 3 view .LVU2429
	.loc 2 764 3 view .LVU2430
	.loc 2 765 3 view .LVU2431
	.loc 2 766 3 view .LVU2432
	.loc 2 767 3 view .LVU2433
	.loc 2 768 3 view .LVU2434
	.loc 2 769 3 view .LVU2435
	.loc 2 770 3 view .LVU2436
	.loc 2 771 3 view .LVU2437
	.loc 2 772 3 view .LVU2438
	.loc 2 773 3 view .LVU2439
	.loc 2 774 3 view .LVU2440
	.loc 2 775 3 view .LVU2441
	.loc 2 776 3 view .LVU2442
	.loc 2 777 3 view .LVU2443
	.loc 2 778 3 view .LVU2444
	.loc 2 779 3 view .LVU2445
	.loc 2 780 3 view .LVU2446
	.loc 2 781 3 view .LVU2447
	.loc 2 782 3 view .LVU2448
	.loc 2 783 3 view .LVU2449
	.loc 2 784 3 view .LVU2450
	.loc 2 785 3 view .LVU2451
	.loc 2 786 3 view .LVU2452
	.loc 2 787 3 view .LVU2453
	.loc 2 788 3 view .LVU2454
	.loc 2 789 3 view .LVU2455
	.loc 2 790 3 view .LVU2456
	.loc 2 791 3 view .LVU2457
	.loc 2 792 3 view .LVU2458
	.loc 2 793 3 view .LVU2459
	.loc 2 794 3 view .LVU2460
	.loc 2 795 3 view .LVU2461
	.loc 2 796 3 view .LVU2462
	.loc 2 797 3 view .LVU2463
	.loc 2 798 3 view .LVU2464
	.loc 2 799 3 view .LVU2465
	.loc 2 800 3 view .LVU2466
	.loc 2 801 3 view .LVU2467
	.loc 2 802 3 view .LVU2468
	.loc 2 803 3 view .LVU2469
	.loc 2 804 3 view .LVU2470
	.loc 2 805 3 view .LVU2471
	.loc 2 806 3 view .LVU2472
	.loc 2 807 3 view .LVU2473
	.loc 2 808 3 view .LVU2474
	.loc 2 809 3 view .LVU2475
	.loc 2 810 3 view .LVU2476
	.loc 2 811 3 view .LVU2477
	.loc 2 812 3 view .LVU2478
	.loc 2 813 3 view .LVU2479
	.loc 2 814 3 view .LVU2480
	.loc 2 815 3 view .LVU2481
	.loc 2 816 3 view .LVU2482
	.loc 2 817 3 view .LVU2483
	.loc 2 818 3 view .LVU2484
	.loc 2 819 3 view .LVU2485
	.loc 2 820 3 view .LVU2486
	.loc 2 821 3 view .LVU2487
	.loc 2 822 3 view .LVU2488
	.loc 2 823 3 view .LVU2489
	.loc 2 824 3 view .LVU2490
	.loc 2 825 3 view .LVU2491
	.loc 2 826 3 view .LVU2492
	.loc 2 827 3 view .LVU2493
	.loc 2 828 3 view .LVU2494
	.loc 2 829 3 view .LVU2495
	.loc 2 830 3 view .LVU2496
	.loc 2 831 3 view .LVU2497
	.loc 2 832 3 view .LVU2498
	.loc 2 833 3 view .LVU2499
	.loc 2 834 3 view .LVU2500
	.loc 2 835 3 view .LVU2501
	.loc 2 836 3 view .LVU2502
	.loc 2 837 3 view .LVU2503
	.loc 2 838 3 view .LVU2504
	.loc 2 839 3 view .LVU2505
	.loc 2 840 3 view .LVU2506
	.loc 2 841 3 view .LVU2507
.LBE2386:
.LBE2441:
.LBE2745:
.LBB2746:
.LBB2747:
.LBB2748:
	.loc 3 81 10 is_stmt 0 view .LVU2508
	add	x4, sp, 688
.LBE2748:
.LBE2747:
.LBE2746:
.LBB2753:
.LBB2186:
.LBB2123:
.LBB2114:
.LBB2096:
.LBB2097:
	.loc 1 316 13 view .LVU2509
	eor	x15, x2, x3
.LBE2097:
.LBE2096:
.LBE2114:
.LBE2123:
.LBE2186:
.LBE2753:
.LBB2754:
.LBB2751:
.LBB2749:
	.loc 3 81 10 view .LVU2510
	mov	x12, x4
.LVL178:
	.loc 3 81 10 view .LVU2511
	add	x4, sp, 552
.LBE2749:
.LBE2751:
.LBE2754:
.LBB2755:
.LBB2187:
.LBB2124:
.LBB2115:
.LBB2106:
.LBB2098:
	.loc 1 316 13 view .LVU2512
	and	x15, x15, x10
.LBE2098:
.LBE2106:
.LBE2115:
.LBE2124:
.LBE2187:
.LBE2755:
.LBB2756:
.LBB2757:
.LBB2758:
	.loc 3 81 10 view .LVU2513
	stp	q4, q5, [sp, 512]
.LBE2758:
.LBE2757:
.LBE2756:
.LBB2759:
.LBB2188:
.LBB2125:
.LBB2116:
.LBB2107:
.LBB2099:
	.loc 1 316 13 view .LVU2514
	eor	x15, x15, x2
.LBE2099:
.LBE2107:
.LBE2116:
.LBE2125:
.LBB2126:
.LBB2127:
.LBB2128:
	eor	x2, x2, x3
.LBE2128:
.LBE2127:
.LBE2126:
.LBE2188:
.LBE2759:
.LBB2760:
.LBB2752:
.LBB2750:
	.loc 3 81 10 view .LVU2515
	stp	q6, q7, [x4]
.LBE2750:
.LBE2752:
.LBE2760:
.LBB2761:
.LBB2189:
.LBB2155:
.LBB2143:
.LBB2129:
	.loc 1 316 13 view .LVU2516
	and	x2, x2, x10
.LBE2129:
.LBE2143:
.LBE2155:
.LBE2189:
.LBE2761:
.LBB2762:
.LBB2442:
.LBB2387:
	.loc 2 776 9 view .LVU2517
	umov	w4, v0.b[10]
.LBE2387:
.LBE2442:
.LBE2762:
.LBB2763:
.LBB2190:
.LBB2156:
.LBB2144:
.LBB2130:
	.loc 1 316 13 view .LVU2518
	eor	x2, x2, x3
.LBE2130:
.LBE2144:
.LBE2156:
.LBE2190:
.LBE2763:
.LBB2764:
.LBB2443:
.LBB2388:
	.loc 2 775 9 view .LVU2519
	umov	w3, v0.b[11]
.LBE2388:
.LBE2443:
.LBE2764:
.LBB2765:
.LBB2713:
.LBB2711:
	.loc 3 81 10 view .LVU2520
	stp	q6, q7, [x0]
	.loc 3 81 10 view .LVU2521
.LBE2711:
.LBE2713:
.LBE2765:
.LBB2766:
.LBB2444:
.LBB2389:
	.loc 2 772 9 view .LVU2522
	umov	w12, v0.b[14]
.LBE2389:
.LBE2444:
.LBE2766:
.LBB2767:
.LBB2212:
.LBB2210:
	.loc 3 81 10 view .LVU2523
	stp	q4, q5, [x6]
	dup	v3.2d, x10
.LVL179:
	.loc 3 81 10 view .LVU2524
.LBE2210:
.LBE2212:
.LBE2767:
.LBB2768:
.LBB2083:
.LBB2074:
	.loc 2 463 6 view .LVU2525
	sub	x11, x5, x11
.LVL180:
	.loc 2 463 6 view .LVU2526
.LBE2074:
.LBE2083:
.LBE2768:
.LBB2769:
.LBB2445:
.LBB2390:
	.loc 2 776 6 view .LVU2527
	lsl	x4, x4, 4
.LBE2390:
.LBE2445:
.LBE2769:
.LBB2770:
.LBB2222:
.LBB2219:
	.loc 3 81 10 view .LVU2528
	stp	q8, q9, [x7]
.LBE2219:
.LBE2222:
.LBE2770:
.LBB2771:
.LBB2446:
.LBB2391:
	.loc 2 841 7 view .LVU2529
	add	x3, x4, x3, lsl 12
.LBE2391:
.LBE2446:
.LBE2771:
.LBB2772:
.LBB2191:
.LBB2157:
.LBB2117:
.LBB2108:
.LBB2100:
	.loc 1 314 23 view .LVU2530
	ldp	q9, q8, [x0]
.LBE2100:
.LBE2108:
.LBE2117:
.LBE2157:
.LBE2191:
.LBE2772:
.LBB2773:
.LBB2084:
.LBB2075:
	.loc 2 470 11 view .LVU2531
	add	x4, sp, 592
.LBE2075:
.LBE2084:
.LBE2773:
.LBB2774:
.LBB2192:
.LBB2158:
.LBB2118:
.LBB2109:
.LBB2101:
	.loc 1 314 15 view .LVU2532
	ldp	q5, q4, [sp, 512]
.LBE2101:
.LBE2109:
.LBE2118:
.LBE2158:
.LBE2192:
.LBE2774:
.LBB2775:
.LBB2085:
.LBB2076:
	.loc 2 465 6 view .LVU2533
	sub	x9, x5, x9
.LVL181:
	.loc 2 465 6 view .LVU2534
.LBE2076:
.LBE2085:
.LBE2775:
.LBB2776:
.LBB2193:
.LBB2159:
.LBB2119:
.LBB2110:
.LBB2102:
	.loc 1 316 13 view .LVU2535
	mov	v2.16b, v9.16b
	.loc 1 316 13 view .LVU2536
.LBE2102:
.LBE2110:
.LBE2119:
.LBE2159:
.LBE2193:
.LBE2776:
.LBB2777:
.LBB2086:
.LBB2077:
	.loc 2 470 11 view .LVU2537
	stp	x8, x11, [x4]
.LBE2077:
.LBE2086:
.LBE2777:
.LBB2778:
.LBB2447:
.LBB2392:
	.loc 2 771 9 view .LVU2538
	umov	w8, v0.b[15]
.LBE2392:
.LBE2447:
.LBE2778:
.LBB2779:
.LBB2194:
.LBB2160:
.LBB2120:
.LBB2111:
.LBB2103:
	.loc 1 316 13 view .LVU2539
	mov	v1.16b, v8.16b
	.loc 1 316 13 view .LVU2540
.LBE2103:
.LBE2111:
.LBE2120:
.LBE2160:
.LBE2194:
.LBE2779:
.LBB2780:
.LBB2087:
.LBB2078:
	.loc 2 464 6 view .LVU2541
	sub	x1, x5, x1
.LVL182:
	.loc 2 470 11 view .LVU2542
	stp	x1, x9, [x4, 16]
.LBE2078:
.LBE2087:
.LBE2780:
.LBB2781:
.LBB2448:
.LBB2393:
	.loc 2 772 6 view .LVU2543
	lsl	x9, x12, 36
	.loc 2 774 9 view .LVU2544
	umov	w13, v0.b[12]
.LBE2393:
.LBE2448:
.LBE2781:
.LBB2782:
.LBB2195:
.LBB2161:
.LBB2121:
.LBB2112:
.LBB2104:
	.loc 1 316 13 view .LVU2545
	bit	v2.16b, v5.16b, v3.16b
	str	x15, [x0, 32]
	bit	v1.16b, v4.16b, v3.16b
.LBE2104:
.LBE2112:
.LBE2121:
.LBE2161:
.LBE2195:
.LBE2782:
.LBB2783:
.LBB2449:
.LBB2394:
	.loc 2 841 7 view .LVU2546
	add	x8, x9, x8, lsl 44
.LBE2394:
.LBE2449:
.LBE2783:
.LBB2784:
.LBB2196:
.LBB2162:
.LBB2145:
.LBB2131:
	.loc 1 314 33 view .LVU2547
	add	x9, sp, 688
.LBE2131:
.LBE2145:
.LBE2162:
.LBE2196:
.LBE2784:
.LBB2785:
.LBB2450:
.LBB2395:
	.loc 2 773 9 view .LVU2548
	umov	w1, v0.b[13]
.LBE2395:
.LBE2450:
.LBE2785:
.LBB2786:
.LBB2197:
.LBB2163:
.LBB2146:
.LBB2132:
	.loc 1 314 23 view .LVU2549
	ldr	q0, [x0, 56]
.LVL183:
	.loc 1 314 23 view .LVU2550
.LBE2132:
.LBE2146:
.LBE2163:
.LBE2197:
.LBE2786:
.LBB2787:
.LBB2451:
.LBB2396:
	.loc 2 774 6 view .LVU2551
	lsl	x11, x13, 20
.LBE2396:
.LBE2451:
.LBE2787:
.LBB2788:
.LBB2198:
.LBB2164:
.LBB2147:
.LBB2133:
	.loc 1 314 33 view .LVU2552
	ldr	q4, [x9, -120]
.LBE2133:
.LBE2147:
.LBE2164:
.LBB2165:
.LBB2122:
.LBB2113:
.LBB2105:
	.loc 1 316 13 view .LVU2553
	stp	q2, q1, [x0]
.LBE2105:
.LBE2113:
.LBE2122:
.LBE2165:
.LBE2198:
.LBE2788:
.LBB2789:
.LBB2452:
.LBB2397:
	.loc 2 841 7 view .LVU2554
	add	x1, x11, x1, lsl 28
.LBE2397:
.LBE2452:
.LBE2789:
.LBB2790:
.LBB2199:
.LBB2166:
.LBB2148:
.LBB2134:
	.loc 1 314 33 view .LVU2555
	ldr	q2, [x9, -136]
.LBE2134:
.LBE2148:
.LBE2166:
.LBE2199:
.LBE2790:
.LBB2791:
.LBB2453:
.LBB2398:
	.loc 2 841 7 view .LVU2556
	add	x1, x1, x8
.LBE2398:
.LBE2453:
.LBE2791:
.LBB2792:
.LBB2200:
.LBB2167:
.LBB2149:
.LBB2135:
	.loc 1 314 23 view .LVU2557
	ldr	q1, [x0, 40]
.LBE2135:
.LBE2149:
.LBE2167:
.LBE2200:
.LBE2792:
.LBB2793:
.LBB2454:
.LBB2399:
	.loc 2 841 7 view .LVU2558
	add	x1, x1, x3
.LBE2399:
.LBE2454:
.LBE2793:
.LBB2794:
.LBB2201:
.LBB2168:
.LBB2150:
.LBB2136:
	.loc 1 316 13 view .LVU2559
	bit	v0.16b, v4.16b, v3.16b
.LBE2136:
.LBE2150:
.LBE2168:
.LBE2201:
.LBE2794:
.LBB2795:
.LBB2455:
.LBB2400:
	.loc 2 841 7 view .LVU2560
	add	x1, x1, x14, lsr 51
.LBE2400:
.LBE2455:
.LBE2795:
.LBB2796:
.LBB2088:
.LBB2079:
	.loc 2 466 6 view .LVU2561
	sub	x5, x5, x1
.LBE2079:
.LBE2088:
.LBE2796:
.LBB2797:
.LBB2202:
.LBB2169:
.LBB2170:
.LBB2171:
	.loc 1 316 13 view .LVU2562
	mov	x3, x10
.LBE2171:
.LBE2170:
.LBE2169:
.LBB2179:
.LBB2151:
.LBB2137:
	bit	v1.16b, v2.16b, v3.16b
.LBE2137:
.LBE2151:
.LBE2179:
.LBB2180:
.LBB2176:
.LBB2172:
	eor	x10, x1, x5
	.loc 1 314 15 view .LVU2563
	ldp	q2, q4, [sp, 592]
.LBE2172:
.LBE2176:
.LBE2180:
.LBB2181:
.LBB2152:
.LBB2138:
	.loc 1 316 13 view .LVU2564
	str	q0, [x0, 56]
.LBE2138:
.LBE2152:
.LBE2181:
.LBE2202:
.LBE2797:
	.loc 1 772 1 view .LVU2565
	ldr	d12, [sp, 112]
.LBB2798:
.LBB2203:
.LBB2182:
.LBB2153:
.LBB2139:
	.loc 1 316 13 view .LVU2566
	str	q1, [x0, 40]
.LBE2139:
	.loc 1 313 43 is_stmt 1 view .LVU2567
	.loc 1 313 26 view .LVU2568
.LBB2140:
	.loc 1 314 5 view .LVU2569
.LVL184:
	.loc 1 315 5 view .LVU2570
	.loc 1 316 5 view .LVU2571
.LBE2140:
	.loc 1 313 43 view .LVU2572
	.loc 1 313 26 view .LVU2573
.LBB2141:
	.loc 1 314 5 view .LVU2574
	.loc 1 315 5 view .LVU2575
	.loc 1 316 5 view .LVU2576
.LBE2141:
.LBE2153:
.LBE2182:
.LBB2183:
.LBB2177:
.LBB2173:
	.loc 1 316 13 is_stmt 0 view .LVU2577
	and	x10, x10, x3
	eor	x10, x10, x1
.LBE2173:
.LBE2177:
.LBE2183:
.LBE2203:
.LBE2798:
	.loc 1 772 1 view .LVU2578
	ldp	x29, x30, [sp]
	ldp	x19, x20, [sp, 16]
	ldp	x21, x22, [sp, 32]
	ldp	x23, x24, [sp, 48]
	ldp	x25, x26, [sp, 64]
	ldp	d8, d9, [sp, 80]
	ldp	d10, d11, [sp, 96]
.LBB2799:
.LBB2204:
.LBB2184:
.LBB2154:
.LBB2142:
	.loc 1 316 13 view .LVU2579
	str	x2, [x6, 32]
.LBE2142:
	.loc 1 313 43 is_stmt 1 view .LVU2580
.LVL185:
	.loc 1 313 26 view .LVU2581
	.loc 1 313 26 is_stmt 0 view .LVU2582
.LBE2154:
.LBE2184:
.LBB2185:
.LBB2178:
.LBB2174:
	.loc 1 314 5 is_stmt 1 view .LVU2583
	.loc 1 314 23 is_stmt 0 view .LVU2584
	ldp	q0, q1, [x0, 80]
	.loc 1 316 13 view .LVU2585
	bit	v0.16b, v2.16b, v3.16b
	bsl	v3.16b, v4.16b, v1.16b
	stp	q0, q3, [x0, 80]
.LBE2174:
	.loc 1 313 43 is_stmt 1 view .LVU2586
	.loc 1 313 26 view .LVU2587
.LVL186:
.LBB2175:
	.loc 1 314 5 view .LVU2588
	.loc 1 315 5 view .LVU2589
	.loc 1 316 5 view .LVU2590
	.loc 1 316 13 is_stmt 0 view .LVU2591
	str	x10, [x7, 32]
.LBE2175:
	.loc 1 313 43 is_stmt 1 view .LVU2592
.LVL187:
	.loc 1 313 26 view .LVU2593
	.loc 1 313 26 is_stmt 0 view .LVU2594
.LBE2178:
.LBE2185:
.LBE2204:
.LBE2799:
	.loc 1 772 1 view .LVU2595
	add	sp, sp, 640
	.cfi_restore 29
	.cfi_restore 30
	.cfi_restore 25
	.cfi_restore 26
	.cfi_restore 23
	.cfi_restore 24
	.cfi_restore 21
	.cfi_restore 22
	.cfi_restore 19
	.cfi_restore 20
	.cfi_restore 76
	.cfi_restore 74
	.cfi_restore 75
	.cfi_restore 72
	.cfi_restore 73
	.cfi_def_cfa_offset 0
.LVL188:
	.loc 1 772 1 view .LVU2596
	ret
	.cfi_endproc
.LFE79:
	.size	table_select, .-table_select
	.section	.text.x25519_ge_p1p1_to_p3,"ax",@progbits
	.align	2
	.p2align 4,,11
	.type	x25519_ge_p1p1_to_p3, %function
x25519_ge_p1p1_to_p3:
.LVL189:
.LFB71:
	.loc 1 570 62 is_stmt 1 view -0
	.cfi_startproc
	.loc 1 571 3 view .LVU2598
.LBB2840:
.LBI2840:
	.loc 1 261 13 view .LVU2599
	.loc 1 262 3 view .LVU2600
.LBB2841:
.LBI2841:
	.loc 1 230 13 view .LVU2601
	.loc 1 233 3 view .LVU2602
	.loc 1 233 3 view .LVU2603
	.loc 1 234 3 view .LVU2604
	.loc 1 235 3 view .LVU2605
.LBB2842:
.LBI2842:
	.loc 2 133 36 view .LVU2606
.LBB2843:
	.loc 2 134 3 view .LVU2607
	.loc 2 135 3 view .LVU2608
	.loc 2 136 3 view .LVU2609
	.loc 2 137 3 view .LVU2610
	.loc 2 138 3 view .LVU2611
	.loc 2 139 3 view .LVU2612
	.loc 2 140 3 view .LVU2613
	.loc 2 141 3 view .LVU2614
	.loc 2 142 3 view .LVU2615
	.loc 2 143 3 view .LVU2616
	.loc 2 144 3 view .LVU2617
	.loc 2 145 3 view .LVU2618
	.loc 2 146 3 view .LVU2619
	.loc 2 147 3 view .LVU2620
	.loc 2 148 3 view .LVU2621
	.loc 2 149 3 view .LVU2622
	.loc 2 150 3 view .LVU2623
	.loc 2 151 3 view .LVU2624
	.loc 2 152 3 view .LVU2625
	.loc 2 153 3 view .LVU2626
	.loc 2 154 3 view .LVU2627
	.loc 2 155 3 view .LVU2628
	.loc 2 156 3 view .LVU2629
	.loc 2 157 3 view .LVU2630
	.loc 2 158 3 view .LVU2631
	.loc 2 159 3 view .LVU2632
	.loc 2 160 3 view .LVU2633
	.loc 2 161 3 view .LVU2634
	.loc 2 162 3 view .LVU2635
	.loc 2 163 3 view .LVU2636
	.loc 2 164 3 view .LVU2637
	.loc 2 165 3 view .LVU2638
	.loc 2 166 3 view .LVU2639
	.loc 2 167 3 view .LVU2640
	.loc 2 168 3 view .LVU2641
	.loc 2 169 3 view .LVU2642
	.loc 2 170 3 view .LVU2643
	.loc 2 171 3 view .LVU2644
	.loc 2 172 3 view .LVU2645
	.loc 2 173 3 view .LVU2646
	.loc 2 174 3 view .LVU2647
	.loc 2 175 3 view .LVU2648
	.loc 2 176 3 view .LVU2649
	.loc 2 177 3 view .LVU2650
	.loc 2 178 3 view .LVU2651
	.loc 2 179 3 view .LVU2652
	.loc 2 180 3 view .LVU2653
	.loc 2 181 3 view .LVU2654
	.loc 2 182 3 view .LVU2655
	.loc 2 183 3 view .LVU2656
	.loc 2 184 3 view .LVU2657
	.loc 2 185 3 view .LVU2658
	.loc 2 186 3 view .LVU2659
.LBE2843:
.LBE2842:
.LBE2841:
.LBE2840:
	.loc 1 570 62 is_stmt 0 view .LVU2660
	stp	x29, x30, [sp, -64]!
	.cfi_def_cfa_offset 64
	.cfi_offset 29, -64
	.cfi_offset 30, -56
	mov	x29, sp
.LBB2853:
.LBB2850:
.LBB2847:
.LBB2844:
	.loc 2 189 47 view .LVU2661
	ldp	x15, x14, [x1, 120]
.LBE2844:
.LBE2847:
.LBE2850:
.LBE2853:
	.loc 1 570 62 view .LVU2662
	stp	x19, x20, [sp, 16]
.LBB2854:
.LBB2851:
.LBB2848:
.LBB2845:
	.loc 2 187 47 view .LVU2663
	ldp	x17, x16, [x1, 136]
.LBE2845:
.LBE2848:
.LBE2851:
.LBE2854:
	.loc 1 570 62 view .LVU2664
	stp	x21, x22, [sp, 32]
.LBB2855:
.LBB2852:
.LBB2849:
.LBB2846:
	.loc 2 186 47 view .LVU2665
	ldr	x12, [x1, 152]
	.loc 2 189 52 view .LVU2666
	add	x3, x14, x14, lsl 2
	.loc 2 190 34 view .LVU2667
	ldp	x2, x11, [x1, 16]
	.loc 2 188 52 view .LVU2668
	add	x4, x17, x17, lsl 2
	.loc 2 195 35 view .LVU2669
	ldp	x9, x13, [x1]
	.loc 2 187 52 view .LVU2670
	add	x5, x16, x16, lsl 2
	.loc 2 186 34 view .LVU2671
	ldr	x10, [x1, 32]
	.loc 2 186 52 view .LVU2672
	add	x8, x12, x12, lsl 2
	.loc 2 189 52 view .LVU2673
	lsl	x3, x3, 2
	.loc 2 188 52 view .LVU2674
	lsl	x4, x4, 2
	sub	x4, x4, x17
	.loc 2 189 52 view .LVU2675
	sub	x3, x3, x14
	.loc 2 186 52 view .LVU2676
	lsl	x8, x8, 2
	.loc 2 187 52 view .LVU2677
	lsl	x5, x5, 2
	.loc 2 186 52 view .LVU2678
	sub	x8, x8, x12
.LVL190:
	.loc 2 187 3 is_stmt 1 view .LVU2679
	.loc 2 187 52 is_stmt 0 view .LVU2680
	sub	x5, x5, x16
.LVL191:
	.loc 2 188 3 is_stmt 1 view .LVU2681
	.loc 2 189 3 view .LVU2682
	.loc 2 190 3 view .LVU2683
	.loc 2 191 3 view .LVU2684
	.loc 2 192 3 view .LVU2685
	.loc 2 193 3 view .LVU2686
	.loc 2 194 3 view .LVU2687
	.loc 2 195 3 view .LVU2688
	.loc 2 196 3 view .LVU2689
	.loc 2 197 3 view .LVU2690
	.loc 2 198 3 view .LVU2691
	.loc 2 199 3 view .LVU2692
	.loc 2 200 3 view .LVU2693
	.loc 2 201 3 view .LVU2694
	.loc 2 202 3 view .LVU2695
	.loc 2 203 3 view .LVU2696
	.loc 2 204 3 view .LVU2697
	.loc 2 205 3 view .LVU2698
	.loc 2 206 3 view .LVU2699
	.loc 2 207 3 view .LVU2700
	.loc 2 208 3 view .LVU2701
	.loc 2 209 3 view .LVU2702
	.loc 2 210 3 view .LVU2703
	.loc 2 211 3 view .LVU2704
	.loc 2 192 6 is_stmt 0 view .LVU2705
	mul	x6, x4, x11
	.loc 2 189 6 view .LVU2706
	mul	x7, x3, x10
	.loc 2 192 6 view .LVU2707
	umulh	x18, x4, x11
	.loc 2 189 6 view .LVU2708
	umulh	x3, x3, x10
	.loc 2 211 7 view .LVU2709
	adds	x7, x7, x6
	.cfi_offset 19, -48
	.cfi_offset 20, -40
	.cfi_offset 21, -32
	.cfi_offset 22, -24
	.loc 2 195 7 view .LVU2710
	mul	x19, x8, x13
	.loc 2 194 6 view .LVU2711
	mul	x6, x5, x2
	.loc 2 211 7 view .LVU2712
	adc	x3, x3, x18
	.loc 2 195 7 view .LVU2713
	umulh	x21, x8, x13
	.loc 2 194 6 view .LVU2714
	umulh	x18, x5, x2
	.loc 2 211 7 view .LVU2715
	adds	x6, x6, x19
	.loc 2 210 7 view .LVU2716
	mul	x20, x15, x9
	.loc 2 191 6 view .LVU2717
	mul	x19, x5, x11
	.loc 2 211 7 view .LVU2718
	adc	x18, x18, x21
	.loc 2 188 6 view .LVU2719
	mul	x30, x10, x4
	.loc 2 211 7 view .LVU2720
	adds	x7, x7, x6
	.loc 2 210 7 view .LVU2721
	umulh	x21, x15, x9
	.loc 2 211 7 view .LVU2722
	adc	x3, x3, x18
	.loc 2 188 6 view .LVU2723
	umulh	x4, x10, x4
.LVL192:
	.loc 2 211 7 view .LVU2724
	adds	x7, x7, x20
	.loc 2 191 6 view .LVU2725
	umulh	x20, x5, x11
	.loc 2 211 7 view .LVU2726
	adc	x3, x3, x21
.LVL193:
	.loc 2 212 3 is_stmt 1 view .LVU2727
	.loc 2 213 3 view .LVU2728
	.loc 2 214 3 view .LVU2729
	.loc 2 215 3 view .LVU2730
	.loc 2 216 3 view .LVU2731
	.loc 2 217 3 view .LVU2732
	.loc 2 218 3 view .LVU2733
	.loc 2 209 7 is_stmt 0 view .LVU2734
	mul	x18, x14, x9
	.loc 2 218 7 view .LVU2735
	adds	x30, x30, x19
	.loc 2 205 7 view .LVU2736
	mul	x6, x13, x15
	.loc 2 218 7 view .LVU2737
	adc	x4, x4, x20
	.loc 2 209 7 view .LVU2738
	umulh	x19, x14, x9
	.loc 2 212 24 view .LVU2739
	extr	x3, x3, x7, 51
.LVL194:
	.loc 2 205 7 view .LVU2740
	umulh	x20, x13, x15
	.loc 2 218 7 view .LVU2741
	adds	x6, x6, x18
	.loc 2 193 6 view .LVU2742
	mul	x22, x8, x2
	.loc 2 213 7 view .LVU2743
	and	x7, x7, 2251799813685247
.LVL195:
	.loc 2 218 7 view .LVU2744
	adc	x20, x20, x19
	.loc 2 193 6 view .LVU2745
	umulh	x19, x8, x2
	.loc 2 218 7 view .LVU2746
	adds	x30, x30, x6
	.loc 2 190 6 view .LVU2747
	mul	x21, x8, x11
.LVL196:
	.loc 2 187 6 view .LVU2748
	mul	x18, x10, x5
	.loc 2 218 7 view .LVU2749
	adc	x4, x4, x20
	adds	x3, x3, x22
	.loc 2 204 7 view .LVU2750
	mul	x20, x13, x14
	.loc 2 190 6 view .LVU2751
	umulh	x22, x8, x11
	.loc 2 187 6 view .LVU2752
	umulh	x6, x10, x5
	.loc 2 218 7 view .LVU2753
	cinc	x5, x19, cs
.LVL197:
	.loc 2 218 7 view .LVU2754
	adds	x30, x30, x3
	.loc 2 201 7 view .LVU2755
	mul	x3, x2, x15
	umulh	x19, x2, x15
	.loc 2 218 7 view .LVU2756
	adc	x4, x4, x5
.LVL198:
	.loc 2 219 3 is_stmt 1 view .LVU2757
	.loc 2 220 3 view .LVU2758
	.loc 2 221 3 view .LVU2759
	.loc 2 204 7 is_stmt 0 view .LVU2760
	umulh	x5, x13, x14
	.loc 2 221 7 view .LVU2761
	adds	x18, x18, x21
	adc	x6, x6, x22
	.loc 2 208 7 view .LVU2762
	mul	x22, x17, x9
	.loc 2 221 7 view .LVU2763
	adds	x3, x3, x20
	.loc 2 219 24 view .LVU2764
	extr	x4, x4, x30, 51
.LVL199:
	.loc 2 221 7 view .LVU2765
	adc	x19, x19, x5
	.loc 2 208 7 view .LVU2766
	umulh	x5, x17, x9
	.loc 2 221 7 view .LVU2767
	adds	x18, x18, x3
	.loc 2 203 7 view .LVU2768
	mul	x21, x13, x17
	.loc 2 221 7 view .LVU2769
	adc	x6, x6, x19
	adds	x4, x4, x22
	.loc 2 207 7 view .LVU2770
	mul	x20, x16, x9
	.loc 2 221 7 view .LVU2771
	cinc	x3, x5, cs
	adds	x18, x18, x4
	.loc 2 207 7 view .LVU2772
	umulh	x5, x16, x9
	.loc 2 221 7 view .LVU2773
	adc	x6, x6, x3
.LVL200:
	.loc 2 222 3 is_stmt 1 view .LVU2774
	.loc 2 223 3 view .LVU2775
	.loc 2 224 3 view .LVU2776
	.loc 2 203 7 is_stmt 0 view .LVU2777
	umulh	x19, x13, x17
	.loc 2 224 7 view .LVU2778
	adds	x4, x21, x20
	.loc 2 198 7 view .LVU2779
	mul	x3, x11, x15
	.loc 2 200 7 view .LVU2780
	mul	x21, x2, x14
	.loc 2 224 7 view .LVU2781
	adc	x19, x19, x5
	.loc 2 198 7 view .LVU2782
	umulh	x20, x11, x15
	.loc 2 222 24 view .LVU2783
	extr	x5, x6, x18, 51
	.loc 2 200 7 view .LVU2784
	umulh	x6, x2, x14
.LVL201:
	.loc 2 224 7 view .LVU2785
	adds	x3, x3, x21
	.loc 2 186 6 view .LVU2786
	mul	x21, x10, x8
	.loc 2 220 7 view .LVU2787
	and	x30, x30, 2251799813685247
.LVL202:
	.loc 2 224 7 view .LVU2788
	adc	x6, x20, x6
	.loc 2 186 6 view .LVU2789
	umulh	x8, x10, x8
.LVL203:
	.loc 2 224 7 view .LVU2790
	adds	x4, x4, x3
	.loc 2 199 7 view .LVU2791
	mul	x3, x2, x17
	.loc 2 224 7 view .LVU2792
	adc	x6, x19, x6
	.loc 2 202 7 view .LVU2793
	mul	x19, x13, x16
	.loc 2 224 7 view .LVU2794
	adds	x5, x5, x21
	.loc 2 202 7 view .LVU2795
	umulh	x13, x13, x16
.LVL204:
	.loc 2 224 7 view .LVU2796
	cinc	x8, x8, cs
	.loc 2 199 7 view .LVU2797
	umulh	x2, x2, x17
.LVL205:
	.loc 2 224 7 view .LVU2798
	adds	x16, x4, x5
.LVL206:
	.loc 2 197 7 view .LVU2799
	mul	x17, x11, x14
.LVL207:
	.loc 2 196 7 view .LVU2800
	mul	x4, x10, x15
	.loc 2 224 7 view .LVU2801
	adc	x6, x6, x8
.LVL208:
	.loc 2 225 3 is_stmt 1 view .LVU2802
	.loc 2 226 3 view .LVU2803
	.loc 2 227 3 view .LVU2804
	.loc 2 196 7 is_stmt 0 view .LVU2805
	umulh	x5, x10, x15
	.loc 2 227 7 view .LVU2806
	adds	x3, x3, x19
	.loc 2 197 7 view .LVU2807
	umulh	x11, x11, x14
.LVL209:
	.loc 2 227 7 view .LVU2808
	adc	x2, x2, x13
	.loc 2 206 7 view .LVU2809
	mul	x10, x9, x12
.LVL210:
	.loc 2 227 7 view .LVU2810
	adds	x8, x4, x17
	adc	x5, x5, x11
	.loc 2 206 7 view .LVU2811
	umulh	x4, x9, x12
	.loc 2 227 7 view .LVU2812
	adds	x3, x3, x8
	.loc 2 225 24 view .LVU2813
	extr	x6, x6, x16, 51
.LVL211:
	.loc 2 227 7 view .LVU2814
	adc	x2, x2, x5
	adds	x6, x6, x10
	cinc	x4, x4, cs
	adds	x3, x3, x6
	adc	x2, x2, x4
.LVL212:
	.loc 2 228 3 is_stmt 1 view .LVU2815
	.loc 2 229 3 view .LVU2816
	.loc 2 230 3 view .LVU2817
	.loc 2 231 3 view .LVU2818
	.loc 2 229 7 is_stmt 0 view .LVU2819
	and	x5, x3, 2251799813685247
.LVL213:
	.loc 2 223 7 view .LVU2820
	and	x18, x18, 2251799813685247
.LVL214:
	.loc 2 226 7 view .LVU2821
	and	x4, x16, 2251799813685247
.LVL215:
	.loc 2 242 11 view .LVU2822
	stp	x4, x5, [x0, 24]
.LVL216:
	.loc 2 228 24 view .LVU2823
	extr	x2, x2, x3, 51
.LVL217:
	.loc 2 230 7 view .LVU2824
	add	x3, x2, x2, lsl 2
	.loc 2 230 7 view .LVU2825
	lsl	x3, x3, 2
	sub	x2, x3, x2
	.loc 2 231 7 view .LVU2826
	add	x2, x2, x7
.LVL218:
	.loc 2 232 3 is_stmt 1 view .LVU2827
	.loc 2 233 3 view .LVU2828
	.loc 2 234 3 view .LVU2829
	.loc 2 233 7 is_stmt 0 view .LVU2830
	and	x3, x2, 2251799813685247
.LVL219:
	.loc 2 238 11 view .LVU2831
	str	x3, [x0]
	.loc 2 234 7 view .LVU2832
	add	x2, x30, x2, lsr 51
.LVL220:
	.loc 2 235 3 is_stmt 1 view .LVU2833
	.loc 2 236 3 view .LVU2834
	.loc 2 237 3 view .LVU2835
	.loc 2 238 3 view .LVU2836
	.loc 2 239 3 view .LVU2837
	.loc 2 236 7 is_stmt 0 view .LVU2838
	and	x3, x2, 2251799813685247
.LVL221:
	.loc 2 237 7 view .LVU2839
	add	x2, x18, x2, lsr 51
.LVL222:
	.loc 2 240 11 view .LVU2840
	stp	x3, x2, [x0, 8]
	.loc 2 241 3 is_stmt 1 view .LVU2841
	.loc 2 242 3 view .LVU2842
.LVL223:
	.loc 2 242 3 is_stmt 0 view .LVU2843
.LBE2846:
.LBE2849:
	.loc 1 236 3 is_stmt 1 view .LVU2844
	.loc 1 236 3 view .LVU2845
	.loc 1 236 3 view .LVU2846
	.loc 1 236 3 is_stmt 0 view .LVU2847
.LBE2852:
.LBE2855:
	.loc 1 572 3 is_stmt 1 view .LVU2848
.LBB2856:
.LBI2856:
	.loc 1 261 13 view .LVU2849
	.loc 1 262 3 view .LVU2850
.LBB2857:
.LBI2857:
	.loc 1 230 13 view .LVU2851
	.loc 1 233 3 view .LVU2852
	.loc 1 233 3 view .LVU2853
	.loc 1 234 3 view .LVU2854
	.loc 1 235 3 view .LVU2855
.LBB2858:
.LBI2858:
	.loc 2 133 36 view .LVU2856
.LBB2859:
	.loc 2 134 3 view .LVU2857
	.loc 2 135 3 view .LVU2858
	.loc 2 136 3 view .LVU2859
	.loc 2 137 3 view .LVU2860
	.loc 2 138 3 view .LVU2861
	.loc 2 139 3 view .LVU2862
	.loc 2 140 3 view .LVU2863
	.loc 2 141 3 view .LVU2864
	.loc 2 142 3 view .LVU2865
	.loc 2 143 3 view .LVU2866
	.loc 2 144 3 view .LVU2867
	.loc 2 145 3 view .LVU2868
	.loc 2 146 3 view .LVU2869
	.loc 2 147 3 view .LVU2870
	.loc 2 148 3 view .LVU2871
	.loc 2 149 3 view .LVU2872
	.loc 2 150 3 view .LVU2873
	.loc 2 151 3 view .LVU2874
	.loc 2 152 3 view .LVU2875
	.loc 2 153 3 view .LVU2876
	.loc 2 154 3 view .LVU2877
	.loc 2 155 3 view .LVU2878
	.loc 2 156 3 view .LVU2879
	.loc 2 157 3 view .LVU2880
	.loc 2 158 3 view .LVU2881
	.loc 2 159 3 view .LVU2882
	.loc 2 160 3 view .LVU2883
	.loc 2 161 3 view .LVU2884
	.loc 2 162 3 view .LVU2885
	.loc 2 163 3 view .LVU2886
	.loc 2 164 3 view .LVU2887
	.loc 2 165 3 view .LVU2888
	.loc 2 166 3 view .LVU2889
	.loc 2 167 3 view .LVU2890
	.loc 2 168 3 view .LVU2891
	.loc 2 169 3 view .LVU2892
	.loc 2 170 3 view .LVU2893
	.loc 2 171 3 view .LVU2894
	.loc 2 172 3 view .LVU2895
	.loc 2 173 3 view .LVU2896
	.loc 2 174 3 view .LVU2897
	.loc 2 175 3 view .LVU2898
	.loc 2 176 3 view .LVU2899
	.loc 2 177 3 view .LVU2900
	.loc 2 178 3 view .LVU2901
	.loc 2 179 3 view .LVU2902
	.loc 2 180 3 view .LVU2903
	.loc 2 181 3 view .LVU2904
	.loc 2 182 3 view .LVU2905
	.loc 2 183 3 view .LVU2906
	.loc 2 184 3 view .LVU2907
	.loc 2 185 3 view .LVU2908
	.loc 2 186 3 view .LVU2909
	.loc 2 188 47 is_stmt 0 view .LVU2910
	ldp	x14, x17, [x1, 88]
	.loc 2 186 47 view .LVU2911
	ldp	x16, x12, [x1, 104]
	.loc 2 190 34 view .LVU2912
	ldp	x7, x11, [x1, 56]
	.loc 2 189 52 view .LVU2913
	add	x3, x14, x14, lsl 2
	.loc 2 188 52 view .LVU2914
	add	x4, x17, x17, lsl 2
	.loc 2 195 35 view .LVU2915
	ldp	x10, x13, [x1, 40]
	.loc 2 187 52 view .LVU2916
	add	x2, x16, x16, lsl 2
	.loc 2 186 34 view .LVU2917
	ldr	x5, [x1, 72]
	.loc 2 186 52 view .LVU2918
	add	x9, x12, x12, lsl 2
	.loc 2 189 52 view .LVU2919
	lsl	x3, x3, 2
	.loc 2 188 52 view .LVU2920
	lsl	x4, x4, 2
	sub	x4, x4, x17
	.loc 2 189 52 view .LVU2921
	sub	x3, x3, x14
	.loc 2 186 52 view .LVU2922
	lsl	x9, x9, 2
	.loc 2 187 52 view .LVU2923
	lsl	x2, x2, 2
	.loc 2 186 52 view .LVU2924
	sub	x9, x9, x12
.LVL224:
	.loc 2 187 3 is_stmt 1 view .LVU2925
	.loc 2 187 52 is_stmt 0 view .LVU2926
	sub	x2, x2, x16
.LVL225:
	.loc 2 188 3 is_stmt 1 view .LVU2927
	.loc 2 189 3 view .LVU2928
	.loc 2 190 3 view .LVU2929
	.loc 2 191 3 view .LVU2930
	.loc 2 192 3 view .LVU2931
	.loc 2 193 3 view .LVU2932
	.loc 2 194 3 view .LVU2933
	.loc 2 195 3 view .LVU2934
	.loc 2 196 3 view .LVU2935
	.loc 2 192 6 is_stmt 0 view .LVU2936
	mul	x6, x4, x11
.LBE2859:
.LBE2858:
.LBE2857:
.LBE2856:
	.loc 1 570 62 view .LVU2937
	str	x23, [sp, 48]
	.cfi_offset 23, -16
.LBB2863:
.LBB2862:
.LBB2861:
.LBB2860:
	.loc 2 196 47 view .LVU2938
	ldr	x15, [x1, 80]
.LVL226:
	.loc 2 197 3 is_stmt 1 view .LVU2939
	.loc 2 198 3 view .LVU2940
	.loc 2 199 3 view .LVU2941
	.loc 2 200 3 view .LVU2942
	.loc 2 201 3 view .LVU2943
	.loc 2 202 3 view .LVU2944
	.loc 2 203 3 view .LVU2945
	.loc 2 204 3 view .LVU2946
	.loc 2 205 3 view .LVU2947
	.loc 2 206 3 view .LVU2948
	.loc 2 207 3 view .LVU2949
	.loc 2 208 3 view .LVU2950
	.loc 2 209 3 view .LVU2951
	.loc 2 210 3 view .LVU2952
	.loc 2 211 3 view .LVU2953
	.loc 2 189 6 is_stmt 0 view .LVU2954
	mul	x8, x3, x5
	.loc 2 192 6 view .LVU2955
	umulh	x18, x4, x11
	.loc 2 189 6 view .LVU2956
	umulh	x3, x3, x5
	.loc 2 211 7 view .LVU2957
	adds	x8, x8, x6
	.loc 2 195 7 view .LVU2958
	mul	x19, x9, x13
	.loc 2 194 6 view .LVU2959
	mul	x6, x2, x7
	.loc 2 211 7 view .LVU2960
	adc	x3, x3, x18
	.loc 2 195 7 view .LVU2961
	umulh	x21, x9, x13
	.loc 2 194 6 view .LVU2962
	umulh	x18, x2, x7
	.loc 2 211 7 view .LVU2963
	adds	x6, x6, x19
	.loc 2 210 7 view .LVU2964
	mul	x20, x15, x10
	.loc 2 191 6 view .LVU2965
	mul	x19, x2, x11
	.loc 2 211 7 view .LVU2966
	adc	x18, x18, x21
	.loc 2 188 6 view .LVU2967
	mul	x30, x5, x4
	.loc 2 211 7 view .LVU2968
	adds	x8, x8, x6
	.loc 2 210 7 view .LVU2969
	umulh	x21, x15, x10
	.loc 2 211 7 view .LVU2970
	adc	x3, x3, x18
	.loc 2 188 6 view .LVU2971
	umulh	x4, x5, x4
.LVL227:
	.loc 2 211 7 view .LVU2972
	adds	x8, x8, x20
	.loc 2 191 6 view .LVU2973
	umulh	x20, x2, x11
	.loc 2 211 7 view .LVU2974
	adc	x3, x3, x21
.LVL228:
	.loc 2 212 3 is_stmt 1 view .LVU2975
	.loc 2 213 3 view .LVU2976
	.loc 2 214 3 view .LVU2977
	.loc 2 215 3 view .LVU2978
	.loc 2 216 3 view .LVU2979
	.loc 2 217 3 view .LVU2980
	.loc 2 218 3 view .LVU2981
	.loc 2 209 7 is_stmt 0 view .LVU2982
	mul	x18, x14, x10
	.loc 2 218 7 view .LVU2983
	adds	x30, x30, x19
	.loc 2 205 7 view .LVU2984
	mul	x6, x13, x15
	.loc 2 218 7 view .LVU2985
	adc	x4, x4, x20
	.loc 2 209 7 view .LVU2986
	umulh	x19, x14, x10
	.loc 2 212 24 view .LVU2987
	extr	x3, x3, x8, 51
.LVL229:
	.loc 2 205 7 view .LVU2988
	umulh	x20, x13, x15
	.loc 2 218 7 view .LVU2989
	adds	x6, x6, x18
	.loc 2 193 6 view .LVU2990
	mul	x21, x9, x7
.LVL230:
	.loc 2 213 7 view .LVU2991
	and	x8, x8, 2251799813685247
.LVL231:
	.loc 2 218 7 view .LVU2992
	adc	x20, x20, x19
	adds	x30, x30, x6
	.loc 2 193 6 view .LVU2993
	umulh	x19, x9, x7
	.loc 2 218 7 view .LVU2994
	adc	x4, x4, x20
	.loc 2 187 6 view .LVU2995
	mul	x18, x5, x2
	.loc 2 218 7 view .LVU2996
	adds	x3, x3, x21
	.loc 2 190 6 view .LVU2997
	mul	x20, x9, x11
	.loc 2 218 7 view .LVU2998
	cinc	x19, x19, cs
	.loc 2 190 6 view .LVU2999
	umulh	x21, x9, x11
	.loc 2 218 7 view .LVU3000
	adds	x30, x30, x3
	.loc 2 187 6 view .LVU3001
	umulh	x6, x5, x2
	.loc 2 218 7 view .LVU3002
	adc	x4, x4, x19
.LVL232:
	.loc 2 219 3 is_stmt 1 view .LVU3003
	.loc 2 220 3 view .LVU3004
	.loc 2 221 3 view .LVU3005
	.loc 2 204 7 is_stmt 0 view .LVU3006
	mul	x3, x13, x14
	.loc 2 221 7 view .LVU3007
	adds	x18, x18, x20
	.loc 2 201 7 view .LVU3008
	mul	x2, x7, x15
.LVL233:
	.loc 2 221 7 view .LVU3009
	adc	x6, x6, x21
	.loc 2 204 7 view .LVU3010
	umulh	x20, x13, x14
	.loc 2 219 24 view .LVU3011
	extr	x4, x4, x30, 51
.LVL234:
	.loc 2 201 7 view .LVU3012
	umulh	x19, x7, x15
	.loc 2 221 7 view .LVU3013
	adds	x2, x2, x3
	.loc 2 208 7 view .LVU3014
	mul	x21, x17, x10
	.loc 2 220 7 view .LVU3015
	and	x30, x30, 2251799813685247
.LVL235:
	.loc 2 208 7 view .LVU3016
	umulh	x3, x17, x10
	.loc 2 221 7 view .LVU3017
	adc	x19, x19, x20
	adds	x18, x18, x2
	.loc 2 203 7 view .LVU3018
	mul	x22, x13, x17
	.loc 2 221 7 view .LVU3019
	adc	x6, x6, x19
	adds	x4, x4, x21
	cinc	x2, x3, cs
	adds	x18, x18, x4
	.loc 2 207 7 view .LVU3020
	mul	x20, x16, x10
	.loc 2 221 7 view .LVU3021
	adc	x6, x6, x2
.LVL236:
	.loc 2 222 3 is_stmt 1 view .LVU3022
	.loc 2 223 3 view .LVU3023
	.loc 2 224 3 view .LVU3024
	.loc 2 207 7 is_stmt 0 view .LVU3025
	umulh	x23, x16, x10
	.loc 2 200 7 view .LVU3026
	mul	x21, x7, x14
	.loc 2 224 7 view .LVU3027
	adds	x4, x22, x20
	.loc 2 203 7 view .LVU3028
	umulh	x19, x13, x17
	.loc 2 222 24 view .LVU3029
	extr	x2, x6, x18, 51
	.loc 2 198 7 view .LVU3030
	mul	x3, x11, x15
	.loc 2 223 7 view .LVU3031
	and	x18, x18, 2251799813685247
.LVL237:
	.loc 2 198 7 view .LVU3032
	umulh	x20, x11, x15
	.loc 2 224 7 view .LVU3033
	adc	x19, x19, x23
	.loc 2 200 7 view .LVU3034
	umulh	x6, x7, x14
	.loc 2 224 7 view .LVU3035
	adds	x3, x3, x21
	.loc 2 186 6 view .LVU3036
	mul	x21, x5, x9
	.loc 2 224 7 view .LVU3037
	adc	x6, x20, x6
	.loc 2 186 6 view .LVU3038
	umulh	x9, x5, x9
.LVL238:
	.loc 2 224 7 view .LVU3039
	adds	x4, x4, x3
	.loc 2 202 7 view .LVU3040
	mul	x20, x13, x16
	.loc 2 199 7 view .LVU3041
	mul	x3, x7, x17
	.loc 2 224 7 view .LVU3042
	adc	x6, x19, x6
	adds	x19, x2, x21
	.loc 2 202 7 view .LVU3043
	umulh	x13, x13, x16
.LVL239:
	.loc 2 199 7 view .LVU3044
	umulh	x2, x7, x17
	.loc 2 224 7 view .LVU3045
	cinc	x9, x9, cs
	.loc 2 197 7 view .LVU3046
	mul	x16, x11, x14
.LVL240:
	.loc 2 224 7 view .LVU3047
	adds	x7, x4, x19
.LVL241:
	.loc 2 196 7 view .LVU3048
	mul	x4, x5, x15
	.loc 2 224 7 view .LVU3049
	adc	x6, x6, x9
.LVL242:
	.loc 2 225 3 is_stmt 1 view .LVU3050
	.loc 2 226 3 view .LVU3051
	.loc 2 227 3 view .LVU3052
	.loc 2 197 7 is_stmt 0 view .LVU3053
	umulh	x11, x11, x14
.LVL243:
	.loc 2 227 7 view .LVU3054
	adds	x3, x3, x20
	.loc 2 196 7 view .LVU3055
	umulh	x5, x5, x15
.LVL244:
	.loc 2 227 7 view .LVU3056
	adc	x2, x2, x13
	adds	x9, x4, x16
	.loc 2 206 7 view .LVU3057
	mul	x13, x10, x12
	.loc 2 227 7 view .LVU3058
	adc	x5, x5, x11
	.loc 2 206 7 view .LVU3059
	umulh	x4, x10, x12
	.loc 2 227 7 view .LVU3060
	adds	x3, x3, x9
	.loc 2 225 24 view .LVU3061
	extr	x6, x6, x7, 51
.LVL245:
	.loc 2 227 7 view .LVU3062
	adc	x2, x2, x5
	adds	x6, x6, x13
	cinc	x4, x4, cs
	adds	x3, x3, x6
	adc	x2, x2, x4
.LVL246:
	.loc 2 228 3 is_stmt 1 view .LVU3063
	.loc 2 229 3 view .LVU3064
	.loc 2 230 3 view .LVU3065
	.loc 2 231 3 view .LVU3066
	.loc 2 229 7 is_stmt 0 view .LVU3067
	and	x5, x3, 2251799813685247
.LVL247:
	.loc 2 226 7 view .LVU3068
	and	x4, x7, 2251799813685247
.LVL248:
	.loc 2 242 11 view .LVU3069
	stp	x4, x5, [x0, 64]
.LVL249:
	.loc 2 228 24 view .LVU3070
	extr	x2, x2, x3, 51
.LVL250:
	.loc 2 230 7 view .LVU3071
	add	x3, x2, x2, lsl 2
	.loc 2 230 7 view .LVU3072
	lsl	x3, x3, 2
	sub	x2, x3, x2
	.loc 2 231 7 view .LVU3073
	add	x2, x2, x8
.LVL251:
	.loc 2 232 3 is_stmt 1 view .LVU3074
	.loc 2 233 3 view .LVU3075
	.loc 2 234 3 view .LVU3076
	.loc 2 233 7 is_stmt 0 view .LVU3077
	and	x3, x2, 2251799813685247
.LVL252:
	.loc 2 238 11 view .LVU3078
	str	x3, [x0, 40]
	.loc 2 234 7 view .LVU3079
	add	x2, x30, x2, lsr 51
.LVL253:
	.loc 2 235 3 is_stmt 1 view .LVU3080
	.loc 2 236 3 view .LVU3081
	.loc 2 237 3 view .LVU3082
	.loc 2 238 3 view .LVU3083
	.loc 2 239 3 view .LVU3084
	.loc 2 236 7 is_stmt 0 view .LVU3085
	and	x3, x2, 2251799813685247
.LVL254:
	.loc 2 237 7 view .LVU3086
	add	x2, x18, x2, lsr 51
.LVL255:
	.loc 2 240 11 view .LVU3087
	stp	x3, x2, [x0, 48]
	.loc 2 241 3 is_stmt 1 view .LVU3088
	.loc 2 242 3 view .LVU3089
.LVL256:
	.loc 2 242 3 is_stmt 0 view .LVU3090
.LBE2860:
.LBE2861:
	.loc 1 236 3 is_stmt 1 view .LVU3091
	.loc 1 236 3 view .LVU3092
	.loc 1 236 3 view .LVU3093
	.loc 1 236 3 is_stmt 0 view .LVU3094
.LBE2862:
.LBE2863:
	.loc 1 573 3 is_stmt 1 view .LVU3095
.LBB2864:
.LBI2864:
	.loc 1 261 13 view .LVU3096
	.loc 1 262 3 view .LVU3097
.LBB2865:
.LBI2865:
	.loc 1 230 13 view .LVU3098
	.loc 1 233 3 view .LVU3099
	.loc 1 233 3 view .LVU3100
	.loc 1 234 3 view .LVU3101
	.loc 1 235 3 view .LVU3102
.LBB2866:
.LBI2866:
	.loc 2 133 36 view .LVU3103
.LBB2867:
	.loc 2 134 3 view .LVU3104
	.loc 2 135 3 view .LVU3105
	.loc 2 136 3 view .LVU3106
	.loc 2 137 3 view .LVU3107
	.loc 2 138 3 view .LVU3108
	.loc 2 139 3 view .LVU3109
	.loc 2 140 3 view .LVU3110
	.loc 2 141 3 view .LVU3111
	.loc 2 142 3 view .LVU3112
	.loc 2 143 3 view .LVU3113
	.loc 2 144 3 view .LVU3114
	.loc 2 145 3 view .LVU3115
	.loc 2 146 3 view .LVU3116
	.loc 2 147 3 view .LVU3117
	.loc 2 148 3 view .LVU3118
	.loc 2 149 3 view .LVU3119
	.loc 2 150 3 view .LVU3120
	.loc 2 151 3 view .LVU3121
	.loc 2 152 3 view .LVU3122
	.loc 2 153 3 view .LVU3123
	.loc 2 154 3 view .LVU3124
	.loc 2 155 3 view .LVU3125
	.loc 2 156 3 view .LVU3126
	.loc 2 157 3 view .LVU3127
	.loc 2 158 3 view .LVU3128
	.loc 2 159 3 view .LVU3129
	.loc 2 160 3 view .LVU3130
	.loc 2 161 3 view .LVU3131
	.loc 2 162 3 view .LVU3132
	.loc 2 163 3 view .LVU3133
	.loc 2 164 3 view .LVU3134
	.loc 2 165 3 view .LVU3135
	.loc 2 166 3 view .LVU3136
	.loc 2 167 3 view .LVU3137
	.loc 2 168 3 view .LVU3138
	.loc 2 169 3 view .LVU3139
	.loc 2 170 3 view .LVU3140
	.loc 2 171 3 view .LVU3141
	.loc 2 172 3 view .LVU3142
	.loc 2 173 3 view .LVU3143
	.loc 2 174 3 view .LVU3144
	.loc 2 175 3 view .LVU3145
	.loc 2 176 3 view .LVU3146
	.loc 2 177 3 view .LVU3147
	.loc 2 178 3 view .LVU3148
	.loc 2 179 3 view .LVU3149
	.loc 2 180 3 view .LVU3150
	.loc 2 181 3 view .LVU3151
	.loc 2 182 3 view .LVU3152
	.loc 2 183 3 view .LVU3153
	.loc 2 184 3 view .LVU3154
	.loc 2 185 3 view .LVU3155
	.loc 2 186 3 view .LVU3156
	.loc 2 188 47 is_stmt 0 view .LVU3157
	ldp	x14, x16, [x1, 128]
	.loc 2 186 47 view .LVU3158
	ldp	x17, x12, [x1, 144]
	.loc 2 190 34 view .LVU3159
	ldp	x7, x11, [x1, 96]
	.loc 2 196 47 view .LVU3160
	ldp	x5, x15, [x1, 112]
	.loc 2 189 52 view .LVU3161
	add	x6, x14, x14, lsl 2
	.loc 2 188 52 view .LVU3162
	add	x3, x16, x16, lsl 2
	.loc 2 186 52 view .LVU3163
	add	x9, x12, x12, lsl 2
	.loc 2 195 35 view .LVU3164
	ldp	x10, x13, [x1, 80]
	.loc 2 187 52 view .LVU3165
	add	x2, x17, x17, lsl 2
	.loc 2 189 52 view .LVU3166
	lsl	x6, x6, 2
	.loc 2 188 52 view .LVU3167
	lsl	x3, x3, 2
	sub	x3, x3, x16
	.loc 2 189 52 view .LVU3168
	sub	x6, x6, x14
	.loc 2 186 52 view .LVU3169
	lsl	x9, x9, 2
	.loc 2 187 52 view .LVU3170
	lsl	x2, x2, 2
	.loc 2 186 52 view .LVU3171
	sub	x9, x9, x12
.LVL257:
	.loc 2 187 3 is_stmt 1 view .LVU3172
	.loc 2 187 52 is_stmt 0 view .LVU3173
	sub	x2, x2, x17
.LVL258:
	.loc 2 188 3 is_stmt 1 view .LVU3174
	.loc 2 189 3 view .LVU3175
	.loc 2 190 3 view .LVU3176
	.loc 2 191 3 view .LVU3177
	.loc 2 192 3 view .LVU3178
	.loc 2 193 3 view .LVU3179
	.loc 2 194 3 view .LVU3180
	.loc 2 195 3 view .LVU3181
	.loc 2 196 3 view .LVU3182
	.loc 2 197 3 view .LVU3183
	.loc 2 198 3 view .LVU3184
	.loc 2 199 3 view .LVU3185
	.loc 2 200 3 view .LVU3186
	.loc 2 201 3 view .LVU3187
	.loc 2 202 3 view .LVU3188
	.loc 2 203 3 view .LVU3189
	.loc 2 204 3 view .LVU3190
	.loc 2 205 3 view .LVU3191
	.loc 2 206 3 view .LVU3192
	.loc 2 207 3 view .LVU3193
	.loc 2 208 3 view .LVU3194
	.loc 2 209 3 view .LVU3195
	.loc 2 210 3 view .LVU3196
	.loc 2 211 3 view .LVU3197
	.loc 2 192 6 is_stmt 0 view .LVU3198
	mul	x4, x3, x11
	.loc 2 189 6 view .LVU3199
	mul	x8, x6, x5
	.loc 2 192 6 view .LVU3200
	umulh	x20, x3, x11
	.loc 2 189 6 view .LVU3201
	umulh	x6, x6, x5
	.loc 2 211 7 view .LVU3202
	adds	x8, x8, x4
	.loc 2 195 7 view .LVU3203
	mul	x19, x9, x13
	.loc 2 194 6 view .LVU3204
	mul	x4, x2, x7
	.loc 2 211 7 view .LVU3205
	adc	x6, x6, x20
	.loc 2 194 6 view .LVU3206
	umulh	x18, x2, x7
	.loc 2 195 7 view .LVU3207
	umulh	x20, x9, x13
	.loc 2 211 7 view .LVU3208
	adds	x4, x4, x19
	.loc 2 210 7 view .LVU3209
	mul	x19, x15, x10
	.loc 2 211 7 view .LVU3210
	adc	x18, x18, x20
	.loc 2 210 7 view .LVU3211
	umulh	x20, x15, x10
	.loc 2 211 7 view .LVU3212
	adds	x8, x8, x4
	.loc 2 188 6 view .LVU3213
	mul	x30, x5, x3
	.loc 2 191 6 view .LVU3214
	mul	x4, x2, x11
	.loc 2 211 7 view .LVU3215
	adc	x6, x6, x18
	adds	x8, x8, x19
	.loc 2 188 6 view .LVU3216
	umulh	x3, x5, x3
.LVL259:
	.loc 2 191 6 view .LVU3217
	umulh	x19, x2, x11
	.loc 2 211 7 view .LVU3218
	adc	x6, x6, x20
.LVL260:
	.loc 2 212 3 is_stmt 1 view .LVU3219
	.loc 2 213 3 view .LVU3220
	.loc 2 214 3 view .LVU3221
	.loc 2 215 3 view .LVU3222
	.loc 2 216 3 view .LVU3223
	.loc 2 217 3 view .LVU3224
	.loc 2 218 3 view .LVU3225
	.loc 2 205 7 is_stmt 0 view .LVU3226
	mul	x18, x13, x15
	.loc 2 218 7 view .LVU3227
	adds	x30, x30, x4
	.loc 2 209 7 view .LVU3228
	mul	x20, x14, x10
	.loc 2 218 7 view .LVU3229
	adc	x3, x3, x19
	.loc 2 205 7 view .LVU3230
	umulh	x19, x13, x15
	.loc 2 212 24 view .LVU3231
	extr	x4, x6, x8, 51
	.loc 2 209 7 view .LVU3232
	umulh	x6, x14, x10
.LVL261:
	.loc 2 218 7 view .LVU3233
	adds	x18, x18, x20
	.loc 2 193 6 view .LVU3234
	mul	x20, x9, x7
	.loc 2 213 7 view .LVU3235
	and	x8, x8, 2251799813685247
.LVL262:
	.loc 2 218 7 view .LVU3236
	adc	x6, x19, x6
	adds	x30, x30, x18
	.loc 2 193 6 view .LVU3237
	umulh	x19, x9, x7
	.loc 2 218 7 view .LVU3238
	adc	x3, x3, x6
	.loc 2 190 6 view .LVU3239
	mul	x21, x9, x11
	.loc 2 218 7 view .LVU3240
	adds	x4, x4, x20
	.loc 2 187 6 view .LVU3241
	mul	x18, x5, x2
	.loc 2 218 7 view .LVU3242
	cinc	x19, x19, cs
	.loc 2 190 6 view .LVU3243
	umulh	x23, x9, x11
	.loc 2 218 7 view .LVU3244
	adds	x20, x30, x4
	.loc 2 187 6 view .LVU3245
	umulh	x6, x5, x2
	.loc 2 218 7 view .LVU3246
	adc	x3, x3, x19
.LVL263:
	.loc 2 219 3 is_stmt 1 view .LVU3247
	.loc 2 220 3 view .LVU3248
	.loc 2 221 3 view .LVU3249
	.loc 2 204 7 is_stmt 0 view .LVU3250
	mul	x4, x13, x14
	.loc 2 221 7 view .LVU3251
	adds	x18, x18, x21
	.loc 2 201 7 view .LVU3252
	mul	x2, x7, x15
.LVL264:
	.loc 2 221 7 view .LVU3253
	adc	x6, x6, x23
	.loc 2 204 7 view .LVU3254
	umulh	x22, x13, x14
	.loc 2 219 24 view .LVU3255
	extr	x3, x3, x20, 51
.LVL265:
	.loc 2 201 7 view .LVU3256
	umulh	x19, x7, x15
	.loc 2 221 7 view .LVU3257
	adds	x2, x2, x4
	.loc 2 208 7 view .LVU3258
	mul	x21, x16, x10
	umulh	x4, x16, x10
	.loc 2 221 7 view .LVU3259
	adc	x19, x19, x22
	adds	x18, x18, x2
	.loc 2 207 7 view .LVU3260
	mul	x22, x17, x10
	.loc 2 221 7 view .LVU3261
	adc	x6, x6, x19
	adds	x3, x3, x21
	cinc	x2, x4, cs
	.loc 2 203 7 view .LVU3262
	mul	x30, x13, x16
	.loc 2 221 7 view .LVU3263
	adds	x18, x18, x3
	.loc 2 207 7 view .LVU3264
	umulh	x19, x17, x10
	.loc 2 221 7 view .LVU3265
	adc	x3, x6, x2
.LVL266:
	.loc 2 222 3 is_stmt 1 view .LVU3266
	.loc 2 223 3 view .LVU3267
	.loc 2 224 3 view .LVU3268
	.loc 2 203 7 is_stmt 0 view .LVU3269
	umulh	x4, x13, x16
	.loc 2 200 7 view .LVU3270
	mul	x6, x7, x14
	.loc 2 224 7 view .LVU3271
	adds	x30, x30, x22
	.loc 2 198 7 view .LVU3272
	mul	x2, x11, x15
	.loc 2 224 7 view .LVU3273
	adc	x4, x4, x19
	.loc 2 198 7 view .LVU3274
	umulh	x21, x11, x15
	.loc 2 222 24 view .LVU3275
	extr	x19, x3, x18, 51
	.loc 2 200 7 view .LVU3276
	umulh	x3, x7, x14
.LVL267:
	.loc 2 224 7 view .LVU3277
	adds	x2, x2, x6
	.loc 2 186 6 view .LVU3278
	mul	x22, x5, x9
	.loc 2 220 7 view .LVU3279
	and	x6, x20, 2251799813685247
.LVL268:
	.loc 2 186 6 view .LVU3280
	umulh	x9, x5, x9
.LVL269:
	.loc 2 224 7 view .LVU3281
	adc	x20, x21, x3
	.loc 2 224 7 view .LVU3282
	adds	x30, x30, x2
	.loc 2 202 7 view .LVU3283
	mul	x21, x13, x17
	.loc 2 224 7 view .LVU3284
	adc	x4, x4, x20
	.loc 2 199 7 view .LVU3285
	mul	x3, x7, x16
	.loc 2 224 7 view .LVU3286
	adds	x19, x19, x22
	.loc 2 202 7 view .LVU3287
	umulh	x13, x13, x17
.LVL270:
	.loc 2 199 7 view .LVU3288
	umulh	x2, x7, x16
	.loc 2 224 7 view .LVU3289
	cinc	x9, x9, cs
	.loc 2 197 7 view .LVU3290
	mul	x17, x11, x14
.LVL271:
	.loc 2 224 7 view .LVU3291
	adds	x30, x30, x19
	.loc 2 196 7 view .LVU3292
	mul	x16, x5, x15
.LVL272:
	.loc 2 224 7 view .LVU3293
	adc	x7, x4, x9
.LVL273:
	.loc 2 225 3 is_stmt 1 view .LVU3294
	.loc 2 226 3 view .LVU3295
	.loc 2 227 3 view .LVU3296
	.loc 2 197 7 is_stmt 0 view .LVU3297
	umulh	x11, x11, x14
.LVL274:
	.loc 2 227 7 view .LVU3298
	adds	x3, x3, x21
	.loc 2 196 7 view .LVU3299
	umulh	x5, x5, x15
.LVL275:
	.loc 2 227 7 view .LVU3300
	adc	x2, x2, x13
	.loc 2 206 7 view .LVU3301
	mul	x9, x10, x12
	.loc 2 227 7 view .LVU3302
	adds	x16, x16, x17
	adc	x5, x5, x11
	.loc 2 206 7 view .LVU3303
	umulh	x4, x10, x12
	.loc 2 227 7 view .LVU3304
	adds	x3, x3, x16
	.loc 2 225 24 view .LVU3305
	extr	x7, x7, x30, 51
.LVL276:
	.loc 2 227 7 view .LVU3306
	adc	x2, x2, x5
	adds	x7, x7, x9
	cinc	x4, x4, cs
	adds	x3, x3, x7
	adc	x2, x2, x4
.LVL277:
	.loc 2 228 3 is_stmt 1 view .LVU3307
	.loc 2 229 3 view .LVU3308
	.loc 2 230 3 view .LVU3309
	.loc 2 231 3 view .LVU3310
	.loc 2 229 7 is_stmt 0 view .LVU3311
	and	x4, x3, 2251799813685247
.LVL278:
	.loc 2 223 7 view .LVU3312
	and	x18, x18, 2251799813685247
.LVL279:
	.loc 2 226 7 view .LVU3313
	and	x30, x30, 2251799813685247
.LVL280:
	.loc 2 242 11 view .LVU3314
	stp	x30, x4, [x0, 104]
.LVL281:
	.loc 2 228 24 view .LVU3315
	extr	x2, x2, x3, 51
.LVL282:
	.loc 2 230 7 view .LVU3316
	add	x3, x2, x2, lsl 2
	.loc 2 230 7 view .LVU3317
	lsl	x3, x3, 2
	sub	x2, x3, x2
	.loc 2 231 7 view .LVU3318
	add	x2, x2, x8
.LVL283:
	.loc 2 232 3 is_stmt 1 view .LVU3319
	.loc 2 233 3 view .LVU3320
	.loc 2 234 3 view .LVU3321
	.loc 2 233 7 is_stmt 0 view .LVU3322
	and	x3, x2, 2251799813685247
.LVL284:
	.loc 2 238 11 view .LVU3323
	str	x3, [x0, 80]
	.loc 2 234 7 view .LVU3324
	add	x2, x6, x2, lsr 51
.LVL285:
	.loc 2 235 3 is_stmt 1 view .LVU3325
	.loc 2 236 3 view .LVU3326
	.loc 2 237 3 view .LVU3327
	.loc 2 238 3 view .LVU3328
	.loc 2 239 3 view .LVU3329
	.loc 2 236 7 is_stmt 0 view .LVU3330
	and	x3, x2, 2251799813685247
.LVL286:
	.loc 2 237 7 view .LVU3331
	add	x2, x18, x2, lsr 51
.LVL287:
	.loc 2 240 11 view .LVU3332
	stp	x3, x2, [x0, 88]
	.loc 2 241 3 is_stmt 1 view .LVU3333
	.loc 2 242 3 view .LVU3334
.LVL288:
	.loc 2 242 3 is_stmt 0 view .LVU3335
.LBE2867:
.LBE2866:
	.loc 1 236 3 is_stmt 1 view .LVU3336
	.loc 1 236 3 view .LVU3337
	.loc 1 236 3 view .LVU3338
	.loc 1 236 3 is_stmt 0 view .LVU3339
.LBE2865:
.LBE2864:
	.loc 1 574 3 is_stmt 1 view .LVU3340
.LBB2868:
.LBI2868:
	.loc 1 261 13 view .LVU3341
	.loc 1 262 3 view .LVU3342
.LBB2869:
.LBI2869:
	.loc 1 230 13 view .LVU3343
	.loc 1 233 3 view .LVU3344
	.loc 1 233 3 view .LVU3345
	.loc 1 234 3 view .LVU3346
	.loc 1 235 3 view .LVU3347
.LBB2870:
.LBI2870:
	.loc 2 133 36 view .LVU3348
.LBB2871:
	.loc 2 134 3 view .LVU3349
	.loc 2 135 3 view .LVU3350
	.loc 2 136 3 view .LVU3351
	.loc 2 137 3 view .LVU3352
	.loc 2 138 3 view .LVU3353
	.loc 2 139 3 view .LVU3354
	.loc 2 140 3 view .LVU3355
	.loc 2 141 3 view .LVU3356
	.loc 2 142 3 view .LVU3357
	.loc 2 143 3 view .LVU3358
	.loc 2 144 3 view .LVU3359
	.loc 2 145 3 view .LVU3360
	.loc 2 146 3 view .LVU3361
	.loc 2 147 3 view .LVU3362
	.loc 2 148 3 view .LVU3363
	.loc 2 149 3 view .LVU3364
	.loc 2 150 3 view .LVU3365
	.loc 2 151 3 view .LVU3366
	.loc 2 152 3 view .LVU3367
	.loc 2 153 3 view .LVU3368
	.loc 2 154 3 view .LVU3369
	.loc 2 155 3 view .LVU3370
	.loc 2 156 3 view .LVU3371
	.loc 2 157 3 view .LVU3372
	.loc 2 158 3 view .LVU3373
	.loc 2 159 3 view .LVU3374
	.loc 2 160 3 view .LVU3375
	.loc 2 161 3 view .LVU3376
	.loc 2 162 3 view .LVU3377
	.loc 2 163 3 view .LVU3378
	.loc 2 164 3 view .LVU3379
	.loc 2 165 3 view .LVU3380
	.loc 2 166 3 view .LVU3381
	.loc 2 167 3 view .LVU3382
	.loc 2 168 3 view .LVU3383
	.loc 2 169 3 view .LVU3384
	.loc 2 170 3 view .LVU3385
	.loc 2 171 3 view .LVU3386
	.loc 2 172 3 view .LVU3387
	.loc 2 173 3 view .LVU3388
	.loc 2 174 3 view .LVU3389
	.loc 2 175 3 view .LVU3390
	.loc 2 176 3 view .LVU3391
	.loc 2 177 3 view .LVU3392
	.loc 2 178 3 view .LVU3393
	.loc 2 179 3 view .LVU3394
	.loc 2 180 3 view .LVU3395
	.loc 2 181 3 view .LVU3396
	.loc 2 182 3 view .LVU3397
	.loc 2 183 3 view .LVU3398
	.loc 2 184 3 view .LVU3399
	.loc 2 185 3 view .LVU3400
	.loc 2 186 3 view .LVU3401
	.loc 2 188 47 is_stmt 0 view .LVU3402
	ldp	x9, x12, [x1, 48]
	.loc 2 186 47 view .LVU3403
	ldp	x11, x10, [x1, 64]
	.loc 2 190 34 view .LVU3404
	ldp	x13, x7, [x1, 16]
	.loc 2 196 47 view .LVU3405
	ldp	x6, x14, [x1, 32]
	.loc 2 189 52 view .LVU3406
	add	x4, x9, x9, lsl 2
	.loc 2 188 52 view .LVU3407
	add	x3, x12, x12, lsl 2
	.loc 2 187 52 view .LVU3408
	add	x2, x11, x11, lsl 2
	.loc 2 195 35 view .LVU3409
	ldp	x5, x8, [x1]
	.loc 2 186 52 view .LVU3410
	add	x15, x10, x10, lsl 2
	.loc 2 189 52 view .LVU3411
	lsl	x4, x4, 2
	.loc 2 188 52 view .LVU3412
	lsl	x3, x3, 2
	sub	x3, x3, x12
	.loc 2 189 52 view .LVU3413
	sub	x4, x4, x9
	.loc 2 186 52 view .LVU3414
	lsl	x15, x15, 2
	.loc 2 187 52 view .LVU3415
	lsl	x2, x2, 2
	.loc 2 186 52 view .LVU3416
	sub	x15, x15, x10
.LVL289:
	.loc 2 187 3 is_stmt 1 view .LVU3417
	.loc 2 187 52 is_stmt 0 view .LVU3418
	sub	x2, x2, x11
.LVL290:
	.loc 2 188 3 is_stmt 1 view .LVU3419
	.loc 2 189 3 view .LVU3420
	.loc 2 190 3 view .LVU3421
	.loc 2 191 3 view .LVU3422
	.loc 2 192 3 view .LVU3423
	.loc 2 193 3 view .LVU3424
	.loc 2 194 3 view .LVU3425
	.loc 2 195 3 view .LVU3426
	.loc 2 196 3 view .LVU3427
	.loc 2 197 3 view .LVU3428
	.loc 2 198 3 view .LVU3429
	.loc 2 199 3 view .LVU3430
	.loc 2 200 3 view .LVU3431
	.loc 2 201 3 view .LVU3432
	.loc 2 202 3 view .LVU3433
	.loc 2 203 3 view .LVU3434
	.loc 2 204 3 view .LVU3435
	.loc 2 205 3 view .LVU3436
	.loc 2 206 3 view .LVU3437
	.loc 2 207 3 view .LVU3438
	.loc 2 208 3 view .LVU3439
	.loc 2 209 3 view .LVU3440
	.loc 2 210 3 view .LVU3441
	.loc 2 211 3 view .LVU3442
	.loc 2 192 6 is_stmt 0 view .LVU3443
	mul	x17, x3, x7
	.loc 2 189 6 view .LVU3444
	mul	x16, x4, x6
	.loc 2 192 6 view .LVU3445
	umulh	x18, x3, x7
	.loc 2 189 6 view .LVU3446
	umulh	x4, x4, x6
	.loc 2 211 7 view .LVU3447
	adds	x16, x16, x17
	.loc 2 194 6 view .LVU3448
	mul	x1, x2, x13
.LVL291:
	.loc 2 195 7 view .LVU3449
	mul	x17, x15, x8
	.loc 2 211 7 view .LVU3450
	adc	x4, x4, x18
	.loc 2 195 7 view .LVU3451
	umulh	x19, x15, x8
	.loc 2 194 6 view .LVU3452
	umulh	x18, x2, x13
	.loc 2 211 7 view .LVU3453
	adds	x1, x1, x17
	.loc 2 210 7 view .LVU3454
	mul	x20, x14, x5
	umulh	x21, x14, x5
	.loc 2 211 7 view .LVU3455
	adc	x18, x18, x19
	.loc 2 188 6 view .LVU3456
	mul	x17, x6, x3
	.loc 2 211 7 view .LVU3457
	adds	x16, x16, x1
	.loc 2 191 6 view .LVU3458
	mul	x19, x2, x7
	.loc 2 211 7 view .LVU3459
	adc	x4, x4, x18
	.loc 2 205 7 view .LVU3460
	mul	x1, x8, x14
	.loc 2 211 7 view .LVU3461
	adds	x16, x16, x20
	.loc 2 209 7 view .LVU3462
	mul	x18, x9, x5
	.loc 2 211 7 view .LVU3463
	adc	x4, x4, x21
.LVL292:
	.loc 2 212 3 is_stmt 1 view .LVU3464
	.loc 2 213 3 view .LVU3465
	.loc 2 214 3 view .LVU3466
	.loc 2 215 3 view .LVU3467
	.loc 2 216 3 view .LVU3468
	.loc 2 217 3 view .LVU3469
	.loc 2 218 3 view .LVU3470
	.loc 2 191 6 is_stmt 0 view .LVU3471
	umulh	x20, x2, x7
	.loc 2 218 7 view .LVU3472
	adds	x17, x17, x19
	.loc 2 188 6 view .LVU3473
	umulh	x3, x6, x3
.LVL293:
	.loc 2 212 24 view .LVU3474
	extr	x4, x4, x16, 51
.LVL294:
	.loc 2 209 7 view .LVU3475
	umulh	x21, x9, x5
.LVL295:
	.loc 2 213 7 view .LVU3476
	and	x16, x16, 2251799813685247
.LVL296:
	.loc 2 205 7 view .LVU3477
	umulh	x19, x8, x14
	.loc 2 218 7 view .LVU3478
	adc	x3, x3, x20
	.loc 2 193 6 view .LVU3479
	mul	x20, x15, x13
	.loc 2 218 7 view .LVU3480
	adds	x1, x1, x18
	adc	x19, x19, x21
	.loc 2 193 6 view .LVU3481
	umulh	x18, x15, x13
	.loc 2 218 7 view .LVU3482
	adds	x17, x17, x1
	.loc 2 190 6 view .LVU3483
	mul	x21, x15, x7
	.loc 2 187 6 view .LVU3484
	mul	x1, x6, x2
	.loc 2 218 7 view .LVU3485
	adc	x3, x3, x19
	adds	x4, x4, x20
	.loc 2 190 6 view .LVU3486
	umulh	x22, x15, x7
	.loc 2 204 7 view .LVU3487
	mul	x19, x8, x9
	.loc 2 218 7 view .LVU3488
	cinc	x18, x18, cs
	.loc 2 187 6 view .LVU3489
	umulh	x2, x6, x2
.LVL297:
	.loc 2 218 7 view .LVU3490
	adds	x4, x17, x4
	.loc 2 201 7 view .LVU3491
	mul	x17, x13, x14
	.loc 2 218 7 view .LVU3492
	adc	x3, x3, x18
.LVL298:
	.loc 2 219 3 is_stmt 1 view .LVU3493
	.loc 2 220 3 view .LVU3494
	.loc 2 221 3 view .LVU3495
	.loc 2 201 7 is_stmt 0 view .LVU3496
	umulh	x20, x13, x14
	.loc 2 221 7 view .LVU3497
	adds	x1, x1, x21
	.loc 2 204 7 view .LVU3498
	umulh	x18, x8, x9
	.loc 2 221 7 view .LVU3499
	adc	x2, x2, x22
	.loc 2 208 7 view .LVU3500
	mul	x30, x12, x5
	.loc 2 221 7 view .LVU3501
	adds	x17, x17, x19
	adc	x20, x20, x18
	.loc 2 208 7 view .LVU3502
	umulh	x19, x12, x5
	.loc 2 221 7 view .LVU3503
	adds	x1, x1, x17
	.loc 2 219 24 view .LVU3504
	extr	x3, x3, x4, 51
.LVL299:
	.loc 2 207 7 view .LVU3505
	mul	x21, x11, x5
	.loc 2 221 7 view .LVU3506
	adc	x2, x2, x20
	.loc 2 203 7 view .LVU3507
	mul	x18, x8, x12
	.loc 2 221 7 view .LVU3508
	adds	x3, x3, x30
	.loc 2 200 7 view .LVU3509
	mul	x20, x13, x9
	.loc 2 221 7 view .LVU3510
	cinc	x19, x19, cs
	.loc 2 207 7 view .LVU3511
	umulh	x30, x11, x5
	.loc 2 221 7 view .LVU3512
	adds	x3, x1, x3
	.loc 2 203 7 view .LVU3513
	umulh	x17, x8, x12
	.loc 2 221 7 view .LVU3514
	adc	x2, x2, x19
.LVL300:
	.loc 2 222 3 is_stmt 1 view .LVU3515
	.loc 2 223 3 view .LVU3516
	.loc 2 224 3 view .LVU3517
	.loc 2 198 7 is_stmt 0 view .LVU3518
	mul	x1, x7, x14
	.loc 2 224 7 view .LVU3519
	adds	x18, x18, x21
	.loc 2 200 7 view .LVU3520
	umulh	x22, x13, x9
	.loc 2 224 7 view .LVU3521
	adc	x17, x17, x30
	.loc 2 198 7 view .LVU3522
	umulh	x19, x7, x14
	.loc 2 224 7 view .LVU3523
	adds	x1, x1, x20
	.loc 2 186 6 view .LVU3524
	mul	x21, x6, x15
	.loc 2 222 24 view .LVU3525
	extr	x2, x2, x3, 51
.LVL301:
	.loc 2 224 7 view .LVU3526
	adc	x19, x19, x22
	.loc 2 186 6 view .LVU3527
	umulh	x15, x6, x15
.LVL302:
	.loc 2 224 7 view .LVU3528
	adds	x18, x18, x1
	.loc 2 199 7 view .LVU3529
	mul	x20, x13, x12
	.loc 2 224 7 view .LVU3530
	adc	x17, x17, x19
	.loc 2 202 7 view .LVU3531
	mul	x19, x8, x11
	.loc 2 224 7 view .LVU3532
	adds	x2, x2, x21
	.loc 2 199 7 view .LVU3533
	umulh	x1, x13, x12
	.loc 2 202 7 view .LVU3534
	umulh	x11, x8, x11
.LVL303:
	.loc 2 224 7 view .LVU3535
	cinc	x15, x15, cs
	.loc 2 197 7 view .LVU3536
	mul	x13, x7, x9
.LVL304:
	.loc 2 224 7 view .LVU3537
	adds	x18, x18, x2
	.loc 2 196 7 view .LVU3538
	mul	x12, x6, x14
.LVL305:
	.loc 2 224 7 view .LVU3539
	adc	x8, x17, x15
.LVL306:
	.loc 2 225 3 is_stmt 1 view .LVU3540
	.loc 2 226 3 view .LVU3541
	.loc 2 227 3 view .LVU3542
	.loc 2 197 7 is_stmt 0 view .LVU3543
	umulh	x7, x7, x9
.LVL307:
	.loc 2 227 7 view .LVU3544
	adds	x2, x20, x19
	.loc 2 196 7 view .LVU3545
	umulh	x6, x6, x14
.LVL308:
	.loc 2 227 7 view .LVU3546
	adc	x1, x1, x11
	.loc 2 206 7 view .LVU3547
	mul	x9, x5, x10
.LVL309:
	.loc 2 227 7 view .LVU3548
	adds	x12, x12, x13
	adc	x6, x6, x7
	.loc 2 206 7 view .LVU3549
	umulh	x5, x5, x10
.LVL310:
	.loc 2 227 7 view .LVU3550
	adds	x2, x2, x12
	.loc 2 225 24 view .LVU3551
	extr	x8, x8, x18, 51
.LVL311:
	.loc 2 227 7 view .LVU3552
	adc	x1, x1, x6
	adds	x8, x8, x9
	cinc	x5, x5, cs
	adds	x2, x2, x8
	adc	x1, x1, x5
.LVL312:
	.loc 2 228 3 is_stmt 1 view .LVU3553
	.loc 2 229 3 view .LVU3554
	.loc 2 230 3 view .LVU3555
	.loc 2 231 3 view .LVU3556
	.loc 2 229 7 is_stmt 0 view .LVU3557
	and	x5, x2, 2251799813685247
.LVL313:
	.loc 2 220 7 view .LVU3558
	and	x4, x4, 2251799813685247
.LVL314:
	.loc 2 223 7 view .LVU3559
	and	x3, x3, 2251799813685247
.LVL315:
	.loc 2 226 7 view .LVU3560
	and	x18, x18, 2251799813685247
.LVL316:
	.loc 2 228 24 view .LVU3561
	extr	x1, x1, x2, 51
.LVL317:
	.loc 2 242 11 view .LVU3562
	stp	x18, x5, [x0, 144]
.LVL318:
	.loc 2 232 3 is_stmt 1 view .LVU3563
	.loc 2 233 3 view .LVU3564
	.loc 2 234 3 view .LVU3565
	.loc 2 235 3 view .LVU3566
	.loc 2 236 3 view .LVU3567
	.loc 2 237 3 view .LVU3568
	.loc 2 238 3 view .LVU3569
	.loc 2 239 3 view .LVU3570
	.loc 2 230 7 is_stmt 0 view .LVU3571
	add	x2, x1, x1, lsl 2
	.loc 2 230 7 view .LVU3572
.LBE2871:
.LBE2870:
.LBE2869:
.LBE2868:
	.loc 1 575 1 view .LVU3573
	ldp	x19, x20, [sp, 16]
.LBB2884:
.LBB2880:
.LBB2876:
.LBB2872:
	.loc 2 230 7 view .LVU3574
	lsl	x2, x2, 2
	sub	x1, x2, x1
	.loc 2 231 7 view .LVU3575
	add	x1, x1, x16
.LBE2872:
.LBE2876:
.LBE2880:
.LBE2884:
	.loc 1 575 1 view .LVU3576
	ldp	x21, x22, [sp, 32]
.LBB2885:
.LBB2881:
.LBB2877:
.LBB2873:
	.loc 2 234 7 view .LVU3577
	add	x4, x4, x1, lsr 51
.LVL319:
	.loc 2 234 7 view .LVU3578
.LBE2873:
.LBE2877:
.LBE2881:
.LBE2885:
	.loc 1 575 1 view .LVU3579
	ldr	x23, [sp, 48]
.LBB2886:
.LBB2882:
.LBB2878:
.LBB2874:
	.loc 2 233 7 view .LVU3580
	and	x2, x1, 2251799813685247
.LBE2874:
.LBE2878:
.LBE2882:
.LBE2886:
	.loc 1 575 1 view .LVU3581
	ldp	x29, x30, [sp], 64
	.cfi_restore 30
	.cfi_restore 29
	.cfi_restore 23
	.cfi_restore 21
	.cfi_restore 22
	.cfi_restore 19
	.cfi_restore 20
	.cfi_def_cfa_offset 0
.LBB2887:
.LBB2883:
.LBB2879:
.LBB2875:
	.loc 2 236 7 view .LVU3582
	and	x1, x4, 2251799813685247
	.loc 2 237 7 view .LVU3583
	add	x4, x3, x4, lsr 51
	.loc 2 238 11 view .LVU3584
	str	x2, [x0, 120]
	.loc 2 239 11 view .LVU3585
	stp	x1, x4, [x0, 128]
	.loc 2 240 3 is_stmt 1 view .LVU3586
	.loc 2 241 3 view .LVU3587
	.loc 2 242 3 view .LVU3588
.LVL320:
	.loc 2 242 3 is_stmt 0 view .LVU3589
.LBE2875:
.LBE2879:
	.loc 1 236 3 is_stmt 1 view .LVU3590
	.loc 1 236 3 view .LVU3591
	.loc 1 236 3 view .LVU3592
	.loc 1 236 3 is_stmt 0 view .LVU3593
.LBE2883:
.LBE2887:
	.loc 1 575 1 view .LVU3594
	ret
	.cfi_endproc
.LFE71:
	.size	x25519_ge_p1p1_to_p3, .-x25519_ge_p1p1_to_p3
	.section	.text.ge_madd,"ax",@progbits
	.align	2
	.p2align 4,,11
	.type	ge_madd, %function
ge_madd:
.LVL321:
.LFB74:
	.loc 1 604 70 is_stmt 1 view -0
	.cfi_startproc
	.loc 1 605 3 view .LVU3596
	.loc 1 607 3 view .LVU3597
.LBB2931:
.LBI2931:
	.loc 1 208 13 view .LVU3598
	.loc 1 209 3 view .LVU3599
	.loc 1 209 3 view .LVU3600
	.loc 1 210 3 view .LVU3601
	.loc 1 211 3 view .LVU3602
.LBB2932:
.LBI2932:
	.loc 2 406 36 view .LVU3603
.LBB2933:
	.loc 2 407 3 view .LVU3604
	.loc 2 408 3 view .LVU3605
	.loc 2 409 3 view .LVU3606
	.loc 2 410 3 view .LVU3607
	.loc 2 411 3 view .LVU3608
	.loc 2 412 3 view .LVU3609
.LBE2933:
.LBE2932:
.LBE2931:
	.loc 1 604 70 is_stmt 0 view .LVU3610
	stp	x29, x30, [sp, -192]!
	.cfi_def_cfa_offset 192
	.cfi_offset 29, -192
	.cfi_offset 30, -184
	mov	x8, x2
.LBB2952:
.LBB2953:
.LBB2954:
	.loc 2 437 6 view .LVU3611
	adrp	x3, .LC1
.LBE2954:
.LBE2953:
.LBE2952:
	.loc 1 604 70 view .LVU3612
	mov	x29, sp
.LBB2967:
.LBB2943:
.LBB2934:
	.loc 2 412 26 view .LVU3613
	ldp	q2, q0, [x1]
.LBE2934:
.LBE2943:
.LBE2967:
	.loc 1 604 70 view .LVU3614
	stp	x27, x28, [sp, 80]
.LBB2968:
.LBB2944:
.LBB2935:
	.loc 2 412 14 view .LVU3615
	ldr	q4, [x1, 40]
.LBE2935:
.LBE2944:
.LBE2968:
	.loc 1 604 70 view .LVU3616
	stp	x19, x20, [sp, 16]
.LBB2969:
.LBB2945:
.LBB2936:
	.loc 2 412 14 view .LVU3617
	ldr	q1, [x1, 56]
.LBE2936:
.LBE2945:
.LBE2969:
	.loc 1 604 70 view .LVU3618
	stp	x21, x22, [sp, 32]
.LBB2970:
.LBB2946:
.LBB2937:
	.loc 2 412 6 view .LVU3619
	add	v2.2d, v4.2d, v2.2d
.LBE2937:
.LBE2946:
.LBE2970:
	.loc 1 604 70 view .LVU3620
	stp	x23, x24, [sp, 48]
.LBB2971:
.LBB2947:
.LBB2938:
	.loc 2 412 6 view .LVU3621
	add	v0.2d, v1.2d, v0.2d
.LBE2938:
.LBE2947:
.LBE2971:
	.loc 1 604 70 view .LVU3622
	stp	x25, x26, [sp, 64]
	.cfi_offset 27, -112
	.cfi_offset 28, -104
	.cfi_offset 19, -176
	.cfi_offset 20, -168
	.cfi_offset 21, -160
	.cfi_offset 22, -152
	.cfi_offset 23, -144
	.cfi_offset 24, -136
	.cfi_offset 25, -128
	.cfi_offset 26, -120
.LBB2972:
.LBB2948:
.LBB2939:
	.loc 2 412 6 view .LVU3623
	umov	x7, v2.d[1]
	.loc 2 417 11 view .LVU3624
	fmov	d1, d2
	.loc 2 416 6 view .LVU3625
	ldr	x2, [x1, 32]
.LVL322:
	.loc 2 412 6 view .LVU3626
	str	q0, [sp, 96]
	fmov	x6, d2
	.loc 2 416 6 view .LVU3627
	ldr	x14, [x1, 72]
	.loc 2 417 11 view .LVU3628
	ins	v1.d[1], x7
.LBE2939:
.LBE2948:
.LBE2972:
.LBB2973:
.LBB2961:
.LBB2955:
	.loc 2 437 6 view .LVU3629
	ldr	q3, [x3, #:lo12:.LC1]
.LBE2955:
.LBE2961:
.LBE2973:
.LBB2974:
.LBB2949:
.LBB2940:
	.loc 2 416 6 view .LVU3630
	add	x14, x14, x2
.LBE2940:
.LBE2949:
.LBE2974:
.LBB2975:
.LBB2962:
.LBB2956:
	.loc 2 437 6 view .LVU3631
	adrp	x2, .LC0
.LBE2956:
.LBE2962:
.LBE2975:
.LBB2976:
.LBB2950:
.LBB2941:
	.loc 2 421 11 view .LVU3632
	str	x14, [x0, 32]
	.loc 2 417 11 view .LVU3633
	str	q1, [x0]
	ldr	q1, [sp, 96]
.LBE2941:
.LBE2950:
.LBE2976:
.LBB2977:
.LBB2963:
.LBB2957:
	.loc 2 437 6 view .LVU3634
	ldr	q0, [x2, #:lo12:.LC0]
	umov	x2, v1.d[1]
.LVL323:
	.loc 2 437 6 view .LVU3635
.LBE2957:
.LBE2963:
.LBE2977:
.LBB2978:
.LBB2951:
.LBB2942:
	.loc 2 413 3 is_stmt 1 view .LVU3636
	.loc 2 414 3 view .LVU3637
	.loc 2 415 3 view .LVU3638
	.loc 2 416 3 view .LVU3639
	.loc 2 417 3 view .LVU3640
	.loc 2 418 3 view .LVU3641
	.loc 2 419 3 view .LVU3642
	.loc 2 420 3 view .LVU3643
	.loc 2 417 11 is_stmt 0 view .LVU3644
	str	q1, [x0, 16]
	.loc 2 421 3 is_stmt 1 view .LVU3645
.LVL324:
	.loc 2 421 3 is_stmt 0 view .LVU3646
.LBE2942:
.LBE2951:
	.loc 1 212 3 is_stmt 1 view .LVU3647
	.loc 1 212 3 view .LVU3648
	.loc 1 212 3 view .LVU3649
	.loc 1 212 3 is_stmt 0 view .LVU3650
.LBE2978:
	.loc 1 608 3 is_stmt 1 view .LVU3651
.LBB2979:
.LBI2952:
	.loc 1 217 13 view .LVU3652
	.loc 1 218 3 view .LVU3653
	.loc 1 218 3 view .LVU3654
	.loc 1 219 3 view .LVU3655
	.loc 1 220 3 view .LVU3656
.LBB2964:
.LBI2953:
	.loc 2 431 36 view .LVU3657
.LBB2958:
	.loc 2 432 3 view .LVU3658
	.loc 2 433 3 view .LVU3659
	.loc 2 434 3 view .LVU3660
	.loc 2 435 3 view .LVU3661
	.loc 2 436 3 view .LVU3662
	.loc 2 437 3 view .LVU3663
	fmov	d1, d2
	.loc 2 437 49 is_stmt 0 view .LVU3664
	ldp	q5, q4, [x1]
	.loc 2 441 6 view .LVU3665
	fmov	x4, d0
	.loc 2 437 43 view .LVU3666
	ldr	q2, [x1, 40]
	ins	v1.d[1], x7
	.loc 2 441 6 view .LVU3667
	ldr	x12, [x1, 72]
	.loc 2 437 6 view .LVU3668
	add	v2.2d, v2.2d, v3.2d
	umov	x17, v1.d[1]
	.loc 2 441 6 view .LVU3669
	add	x12, x12, x4
	.loc 2 437 43 view .LVU3670
	ldr	q1, [x1, 56]
	.loc 2 437 6 view .LVU3671
	sub	v2.2d, v2.2d, v5.2d
	.loc 2 441 6 view .LVU3672
	ldr	x3, [x1, 32]
	.loc 2 437 6 view .LVU3673
	add	v1.2d, v1.2d, v0.2d
	.loc 2 441 6 view .LVU3674
	sub	x12, x12, x3
	.loc 2 437 6 view .LVU3675
	str	q2, [sp, 112]
	umov	x19, v2.d[1]
	.loc 2 446 11 view .LVU3676
	str	x12, [x0, 72]
	.loc 2 437 6 view .LVU3677
	sub	v1.2d, v1.2d, v4.2d
	.loc 2 442 11 view .LVU3678
	str	q2, [x0, 40]
.LBE2958:
.LBE2964:
.LBE2979:
.LBB2980:
.LBB2981:
.LBB2982:
.LBB2983:
	.loc 2 194 6 view .LVU3679
	ldr	x5, [sp, 96]
.LBE2983:
.LBE2982:
.LBE2981:
.LBE2980:
.LBB3077:
.LBB2965:
.LBB2959:
	.loc 2 437 6 view .LVU3680
	umov	x27, v1.d[1]
	fmov	d0, d1
.LBE2959:
.LBE2965:
.LBE3077:
.LBB3078:
.LBB3046:
.LBB3015:
.LBB2984:
	.loc 2 194 6 view .LVU3681
	ldr	x11, [sp, 96]
.LBE2984:
.LBE3015:
.LBE3046:
.LBE3078:
.LBB3079:
.LBB2966:
.LBB2960:
	.loc 2 437 6 view .LVU3682
	fmov	x26, d1
	ins	v0.d[1], x27
	.loc 2 442 11 view .LVU3683
	str	q0, [x0, 56]
	umov	x10, v0.d[1]
.LVL325:
	.loc 2 438 3 is_stmt 1 view .LVU3684
	.loc 2 439 3 view .LVU3685
	.loc 2 440 3 view .LVU3686
	.loc 2 441 3 view .LVU3687
	.loc 2 442 3 view .LVU3688
	.loc 2 443 3 view .LVU3689
	.loc 2 444 3 view .LVU3690
	.loc 2 445 3 view .LVU3691
	.loc 2 446 3 view .LVU3692
	.loc 2 446 3 is_stmt 0 view .LVU3693
.LBE2960:
.LBE2966:
	.loc 1 221 3 is_stmt 1 view .LVU3694
	.loc 1 221 3 view .LVU3695
	.loc 1 221 3 view .LVU3696
	.loc 1 221 3 is_stmt 0 view .LVU3697
.LBE3079:
	.loc 1 609 3 is_stmt 1 view .LVU3698
.LBB3080:
.LBI2980:
	.loc 1 261 13 view .LVU3699
	.loc 1 262 3 view .LVU3700
.LBB3047:
.LBI2981:
	.loc 1 230 13 view .LVU3701
	.loc 1 233 3 view .LVU3702
	.loc 1 233 3 view .LVU3703
	.loc 1 234 3 view .LVU3704
	.loc 1 235 3 view .LVU3705
.LBB3016:
.LBI2982:
	.loc 2 133 36 view .LVU3706
.LBB2985:
	.loc 2 134 3 view .LVU3707
	.loc 2 135 3 view .LVU3708
	.loc 2 136 3 view .LVU3709
	.loc 2 137 3 view .LVU3710
	.loc 2 138 3 view .LVU3711
	.loc 2 139 3 view .LVU3712
	.loc 2 140 3 view .LVU3713
	.loc 2 141 3 view .LVU3714
	.loc 2 142 3 view .LVU3715
	.loc 2 143 3 view .LVU3716
	.loc 2 144 3 view .LVU3717
	.loc 2 145 3 view .LVU3718
	.loc 2 146 3 view .LVU3719
	.loc 2 147 3 view .LVU3720
	.loc 2 148 3 view .LVU3721
	.loc 2 149 3 view .LVU3722
	.loc 2 150 3 view .LVU3723
	.loc 2 151 3 view .LVU3724
	.loc 2 152 3 view .LVU3725
	.loc 2 153 3 view .LVU3726
	.loc 2 154 3 view .LVU3727
	.loc 2 155 3 view .LVU3728
	.loc 2 156 3 view .LVU3729
	.loc 2 157 3 view .LVU3730
	.loc 2 158 3 view .LVU3731
	.loc 2 159 3 view .LVU3732
	.loc 2 160 3 view .LVU3733
	.loc 2 161 3 view .LVU3734
	.loc 2 162 3 view .LVU3735
	.loc 2 163 3 view .LVU3736
	.loc 2 164 3 view .LVU3737
	.loc 2 165 3 view .LVU3738
	.loc 2 166 3 view .LVU3739
	.loc 2 167 3 view .LVU3740
	.loc 2 168 3 view .LVU3741
	.loc 2 169 3 view .LVU3742
	.loc 2 170 3 view .LVU3743
	.loc 2 171 3 view .LVU3744
	.loc 2 172 3 view .LVU3745
	.loc 2 173 3 view .LVU3746
	.loc 2 174 3 view .LVU3747
	.loc 2 175 3 view .LVU3748
	.loc 2 176 3 view .LVU3749
	.loc 2 177 3 view .LVU3750
	.loc 2 178 3 view .LVU3751
	.loc 2 179 3 view .LVU3752
	.loc 2 180 3 view .LVU3753
	.loc 2 181 3 view .LVU3754
	.loc 2 182 3 view .LVU3755
	.loc 2 183 3 view .LVU3756
	.loc 2 184 3 view .LVU3757
	.loc 2 185 3 view .LVU3758
	.loc 2 186 3 view .LVU3759
	.loc 2 187 47 is_stmt 0 view .LVU3760
	ldp	x18, x24, [x8, 16]
	.loc 2 189 47 view .LVU3761
	ldp	x3, x30, [x8]
	.loc 2 186 47 view .LVU3762
	ldr	x25, [x8, 32]
	.loc 2 188 52 view .LVU3763
	add	x9, x18, x18, lsl 2
	.loc 2 187 52 view .LVU3764
	add	x16, x24, x24, lsl 2
.LBE2985:
.LBE3016:
.LBE3047:
.LBE3080:
.LBB3081:
.LBB3082:
.LBB3083:
.LBB3084:
	.loc 2 206 7 view .LVU3765
	ldr	x27, [x8, 72]
.LBE3084:
.LBE3083:
.LBE3082:
.LBE3081:
.LBB3238:
.LBB3048:
.LBB3017:
.LBB2986:
	.loc 2 186 52 view .LVU3766
	add	x22, x25, x25, lsl 2
	.loc 2 188 52 view .LVU3767
	lsl	x9, x9, 2
	.loc 2 187 52 view .LVU3768
	lsl	x16, x16, 2
	sub	x16, x16, x24
	.loc 2 188 52 view .LVU3769
	sub	x9, x9, x18
	.loc 2 189 52 view .LVU3770
	add	x15, x30, x30, lsl 2
	.loc 2 186 52 view .LVU3771
	lsl	x22, x22, 2
	sub	x22, x22, x25
.LVL326:
	.loc 2 187 3 is_stmt 1 view .LVU3772
	.loc 2 188 3 view .LVU3773
	.loc 2 189 3 view .LVU3774
	.loc 2 190 3 view .LVU3775
	.loc 2 191 3 view .LVU3776
	.loc 2 192 3 view .LVU3777
	.loc 2 193 3 view .LVU3778
	.loc 2 194 3 view .LVU3779
	.loc 2 195 3 view .LVU3780
	.loc 2 196 3 view .LVU3781
	.loc 2 197 3 view .LVU3782
	.loc 2 198 3 view .LVU3783
	.loc 2 199 3 view .LVU3784
	.loc 2 200 3 view .LVU3785
	.loc 2 201 3 view .LVU3786
	.loc 2 202 3 view .LVU3787
	.loc 2 203 3 view .LVU3788
	.loc 2 204 3 view .LVU3789
	.loc 2 205 3 view .LVU3790
	.loc 2 206 3 view .LVU3791
	.loc 2 207 3 view .LVU3792
	.loc 2 208 3 view .LVU3793
	.loc 2 209 3 view .LVU3794
	.loc 2 210 3 view .LVU3795
	.loc 2 211 3 view .LVU3796
	.loc 2 210 7 is_stmt 0 view .LVU3797
	mul	x28, x3, x6
	.loc 2 194 6 view .LVU3798
	mul	x20, x16, x5
	.loc 2 189 52 view .LVU3799
	lsl	x15, x15, 2
	.loc 2 192 6 view .LVU3800
	mul	x13, x9, x2
	.loc 2 189 52 view .LVU3801
	sub	x15, x15, x30
	.loc 2 194 6 view .LVU3802
	umulh	x21, x16, x11
	.loc 2 192 6 view .LVU3803
	umulh	x5, x9, x2
.LVL327:
	.loc 2 211 7 view .LVU3804
	adds	x13, x13, x20
	.loc 2 195 7 view .LVU3805
	mul	x20, x22, x17
	.loc 2 210 7 view .LVU3806
	umulh	x23, x3, x6
	.loc 2 211 7 view .LVU3807
	adc	x5, x5, x21
	.loc 2 195 7 view .LVU3808
	umulh	x21, x22, x17
	.loc 2 211 7 view .LVU3809
	adds	x20, x20, x28
	.loc 2 189 6 view .LVU3810
	mul	x28, x15, x14
	.loc 2 211 7 view .LVU3811
	adc	x21, x21, x23
	.loc 2 189 6 view .LVU3812
	umulh	x15, x15, x14
	.loc 2 193 6 view .LVU3813
	mul	x23, x22, x11
	.loc 2 211 7 view .LVU3814
	adds	x13, x13, x20
	.loc 2 191 6 view .LVU3815
	mul	x20, x16, x2
	.loc 2 211 7 view .LVU3816
	adc	x5, x5, x21
	adds	x13, x13, x28
	.loc 2 191 6 view .LVU3817
	umulh	x21, x16, x2
	.loc 2 193 6 view .LVU3818
	umulh	x28, x22, x11
	.loc 2 211 7 view .LVU3819
	adc	x5, x5, x15
.LVL328:
	.loc 2 212 3 is_stmt 1 view .LVU3820
	.loc 2 213 3 view .LVU3821
	.loc 2 214 3 view .LVU3822
	.loc 2 215 3 view .LVU3823
	.loc 2 216 3 view .LVU3824
	.loc 2 217 3 view .LVU3825
	.loc 2 218 3 view .LVU3826
	.loc 2 218 7 is_stmt 0 view .LVU3827
	adds	x20, x20, x23
	.loc 2 205 7 view .LVU3828
	mul	x15, x17, x3
	.loc 2 209 7 view .LVU3829
	mul	x23, x30, x6
	.loc 2 218 7 view .LVU3830
	adc	x21, x21, x28
	.loc 2 205 7 view .LVU3831
	umulh	x28, x17, x3
	.loc 2 212 24 view .LVU3832
	extr	x5, x5, x13, 51
.LVL329:
	.loc 2 218 7 view .LVU3833
	adds	x15, x15, x23
	.loc 2 209 7 view .LVU3834
	umulh	x23, x30, x6
	.loc 2 213 7 view .LVU3835
	and	x13, x13, 2251799813685247
.LVL330:
	.loc 2 218 7 view .LVU3836
	adc	x28, x28, x23
	.loc 2 188 6 view .LVU3837
	mul	x23, x14, x9
	.loc 2 218 7 view .LVU3838
	adds	x20, x20, x15
	.loc 2 188 6 view .LVU3839
	umulh	x15, x14, x9
	.loc 2 218 7 view .LVU3840
	adc	x21, x21, x28
	.loc 2 190 6 view .LVU3841
	mul	x9, x22, x2
.LVL331:
	.loc 2 218 7 view .LVU3842
	adds	x28, x5, x23
	.loc 2 201 7 view .LVU3843
	mul	x23, x3, x11
	.loc 2 218 7 view .LVU3844
	cinc	x5, x15, cs
	adds	x20, x20, x28
	.loc 2 190 6 view .LVU3845
	umulh	x15, x22, x2
	.loc 2 218 7 view .LVU3846
	adc	x21, x21, x5
.LVL332:
	.loc 2 219 3 is_stmt 1 view .LVU3847
	.loc 2 220 3 view .LVU3848
	.loc 2 221 3 view .LVU3849
	.loc 2 201 7 is_stmt 0 view .LVU3850
	umulh	x28, x11, x3
	.loc 2 221 7 view .LVU3851
	adds	x9, x9, x23
	.loc 2 204 7 view .LVU3852
	mul	x5, x17, x30
	.loc 2 219 24 view .LVU3853
	extr	x21, x21, x20, 51
.LVL333:
	.loc 2 208 7 view .LVU3854
	mul	x23, x18, x6
	.loc 2 221 7 view .LVU3855
	adc	x15, x15, x28
	.loc 2 204 7 view .LVU3856
	umulh	x28, x17, x30
	.loc 2 220 7 view .LVU3857
	and	x20, x20, 2251799813685247
.LVL334:
	.loc 2 221 7 view .LVU3858
	adds	x5, x5, x23
	.loc 2 208 7 view .LVU3859
	umulh	x23, x18, x6
	.loc 2 221 7 view .LVU3860
	adc	x28, x28, x23
	.loc 2 187 6 view .LVU3861
	mul	x23, x14, x16
	.loc 2 221 7 view .LVU3862
	adds	x9, x9, x5
	.loc 2 187 6 view .LVU3863
	umulh	x16, x14, x16
.LVL335:
	.loc 2 198 7 view .LVU3864
	mul	x5, x2, x3
	.loc 2 221 7 view .LVU3865
	adc	x15, x15, x28
	adds	x28, x21, x23
	.loc 2 200 7 view .LVU3866
	mul	x23, x30, x11
	.loc 2 198 7 view .LVU3867
	umulh	x21, x2, x3
	.loc 2 221 7 view .LVU3868
	cinc	x16, x16, cs
	adds	x9, x9, x28
	.loc 2 200 7 view .LVU3869
	umulh	x28, x11, x30
	.loc 2 221 7 view .LVU3870
	adc	x15, x15, x16
.LVL336:
	.loc 2 222 3 is_stmt 1 view .LVU3871
	.loc 2 223 3 view .LVU3872
	.loc 2 224 3 view .LVU3873
	.loc 2 224 7 is_stmt 0 view .LVU3874
	adds	x5, x5, x23
	.loc 2 203 7 view .LVU3875
	mul	x16, x17, x18
	.loc 2 224 7 view .LVU3876
	adc	x21, x21, x28
	.loc 2 207 7 view .LVU3877
	mul	x23, x24, x6
	.loc 2 222 24 view .LVU3878
	extr	x15, x15, x9, 51
.LVL337:
	.loc 2 203 7 view .LVU3879
	umulh	x11, x17, x18
.LVL338:
	.loc 2 223 7 view .LVU3880
	and	x9, x9, 2251799813685247
.LVL339:
	.loc 2 207 7 view .LVU3881
	umulh	x28, x24, x6
	.loc 2 224 7 view .LVU3882
	adds	x16, x16, x23
	adc	x28, x11, x28
	adds	x11, x5, x16
	.loc 2 186 6 view .LVU3883
	mul	x5, x14, x22
	.loc 2 224 7 view .LVU3884
	adc	x21, x21, x28
	.loc 2 186 6 view .LVU3885
	umulh	x22, x14, x22
.LVL340:
	.loc 2 224 7 view .LVU3886
	adds	x5, x15, x5
	cinc	x22, x22, cs
	adds	x5, x11, x5
	adc	x21, x21, x22
.LVL341:
	.loc 2 225 3 is_stmt 1 view .LVU3887
	.loc 2 226 3 view .LVU3888
	.loc 2 227 3 view .LVU3889
	.loc 2 197 7 is_stmt 0 view .LVU3890
	mul	x22, x2, x30
	umulh	x30, x2, x30
.LVL342:
	.loc 2 199 7 view .LVU3891
	ldr	x2, [sp, 96]
.LVL343:
	.loc 2 225 24 view .LVU3892
	extr	x21, x21, x5, 51
.LVL344:
	.loc 2 225 24 view .LVU3893
.LBE2986:
.LBE3017:
.LBE3048:
.LBE3238:
.LBB3239:
.LBB3187:
.LBB3136:
.LBB3085:
	.loc 2 188 47 view .LVU3894
	ldp	x28, x23, [x8, 48]
.LVL345:
	.loc 2 188 47 view .LVU3895
.LBE3085:
.LBE3136:
.LBE3187:
.LBE3239:
.LBB3240:
.LBB3049:
.LBB3018:
.LBB2987:
	.loc 2 226 7 view .LVU3896
	and	x5, x5, 2251799813685247
.LVL346:
	.loc 2 199 7 view .LVU3897
	mul	x11, x18, x2
.LVL347:
	.loc 2 226 7 view .LVU3898
	str	x5, [sp, 136]
.LVL348:
	.loc 2 226 7 view .LVU3899
.LBE2987:
.LBE3018:
.LBE3049:
.LBE3240:
.LBB3241:
.LBB3188:
.LBB3137:
.LBB3086:
	.loc 2 187 47 view .LVU3900
	ldr	x16, [x8, 64]
.LVL349:
	.loc 2 187 47 view .LVU3901
.LBE3086:
.LBE3137:
.LBE3188:
.LBE3241:
.LBB3242:
.LBB3050:
.LBB3019:
.LBB2988:
	.loc 2 227 7 view .LVU3902
	adds	x22, x22, x11
.LVL350:
	.loc 2 227 7 view .LVU3903
.LBE2988:
.LBE3019:
.LBE3050:
.LBE3242:
.LBB3243:
.LBB3189:
.LBB3138:
.LBB3087:
	.loc 2 186 52 view .LVU3904
	ldr	x11, [x8, 72]
.LBE3087:
.LBE3138:
.LBE3189:
.LBE3243:
.LBB3244:
.LBB3051:
.LBB3020:
.LBB2989:
	.loc 2 199 7 view .LVU3905
	umulh	x2, x2, x18
.LBE2989:
.LBE3020:
.LBE3051:
.LBE3244:
.LBB3245:
.LBB3190:
.LBB3139:
.LBB3088:
	.loc 2 187 52 view .LVU3906
	add	x15, x16, x16, lsl 2
.LVL351:
	.loc 2 188 52 view .LVU3907
	add	x18, x23, x23, lsl 2
.LVL352:
	.loc 2 188 52 view .LVU3908
.LBE3088:
.LBE3139:
.LBE3190:
.LBE3245:
.LBB3246:
.LBB3052:
.LBB3021:
.LBB2990:
	.loc 2 227 7 view .LVU3909
	adc	x2, x30, x2
	.loc 2 202 7 view .LVU3910
	mul	x30, x17, x24
	umulh	x24, x17, x24
.LVL353:
	.loc 2 202 7 view .LVU3911
.LBE2990:
.LBE3021:
.LBE3052:
.LBE3246:
.LBB3247:
.LBB3191:
.LBB3140:
.LBB3089:
	.loc 2 186 52 view .LVU3912
	add	x5, x11, x11, lsl 2
.LBE3089:
.LBE3140:
.LBE3191:
.LBE3247:
.LBB3248:
.LBB3053:
.LBB3022:
.LBB2991:
	.loc 2 206 7 view .LVU3913
	mul	x17, x25, x6
.LVL354:
	.loc 2 206 7 view .LVU3914
.LBE2991:
.LBE3022:
.LBE3053:
.LBE3248:
.LBB3249:
.LBB3192:
.LBB3141:
.LBB3090:
	.loc 2 187 52 view .LVU3915
	lsl	x15, x15, 2
.LBE3090:
.LBE3141:
.LBE3192:
.LBE3249:
.LBB3250:
.LBB3054:
.LBB3023:
.LBB2992:
	.loc 2 206 7 view .LVU3916
	umulh	x6, x6, x25
.LVL355:
	.loc 2 206 7 view .LVU3917
.LBE2992:
.LBE3023:
.LBE3054:
.LBE3250:
.LBB3251:
.LBB3193:
.LBB3142:
.LBB3091:
	.loc 2 188 52 view .LVU3918
	lsl	x18, x18, 2
.LBE3091:
.LBE3142:
.LBE3193:
.LBE3251:
.LBB3252:
.LBB3055:
.LBB3024:
.LBB2993:
	.loc 2 227 7 view .LVU3919
	adds	x25, x30, x17
.LVL356:
	.loc 2 227 7 view .LVU3920
.LBE2993:
.LBE3024:
.LBE3055:
.LBE3252:
.LBB3253:
.LBB3194:
.LBB3143:
.LBB3092:
	.loc 2 187 52 view .LVU3921
	sub	x15, x15, x16
	.loc 2 188 52 view .LVU3922
	sub	x18, x18, x23
.LBE3092:
.LBE3143:
.LBE3194:
.LBE3253:
.LBB3254:
.LBB3056:
.LBB3025:
.LBB2994:
	.loc 2 227 7 view .LVU3923
	adc	x6, x24, x6
.LBE2994:
.LBE3025:
.LBE3056:
.LBE3254:
.LBB3255:
.LBB3195:
.LBB3144:
.LBB3093:
	.loc 2 186 52 view .LVU3924
	lsl	x5, x5, 2
.LBE3093:
.LBE3144:
.LBE3195:
.LBE3255:
.LBB3256:
.LBB3057:
.LBB3026:
.LBB2995:
	.loc 2 227 7 view .LVU3925
	adds	x25, x22, x25
	.loc 2 196 7 view .LVU3926
	mul	x22, x14, x3
.LBE2995:
.LBE3026:
.LBE3057:
.LBE3256:
.LBB3257:
.LBB3196:
.LBB3145:
.LBB3094:
	.loc 2 186 52 view .LVU3927
	sub	x5, x5, x11
	.loc 2 196 47 view .LVU3928
	ldr	x17, [x8, 40]
.LBE3094:
.LBE3145:
.LBE3196:
.LBE3257:
.LBB3258:
.LBB3058:
.LBB3027:
.LBB2996:
	.loc 2 196 7 view .LVU3929
	umulh	x3, x14, x3
.LVL357:
	.loc 2 196 7 view .LVU3930
.LBE2996:
.LBE3027:
.LBE3058:
.LBE3258:
.LBB3259:
.LBB3197:
.LBB3146:
.LBB3095:
	.loc 2 210 7 view .LVU3931
	ldr	x11, [sp, 112]
.LBE3095:
.LBE3146:
.LBE3197:
.LBE3259:
.LBB3260:
.LBB3059:
.LBB3028:
.LBB2997:
	.loc 2 227 7 view .LVU3932
	adc	x6, x2, x6
.LBE2997:
.LBE3028:
.LBE3059:
.LBE3260:
.LBB3261:
.LBB3198:
.LBB3147:
.LBB3096:
	.loc 2 189 52 view .LVU3933
	add	x7, x28, x28, lsl 2
.LBE3096:
.LBE3147:
.LBE3198:
.LBE3261:
.LBB3262:
.LBB3060:
.LBB3029:
.LBB2998:
	.loc 2 227 7 view .LVU3934
	adds	x21, x21, x22
.LBE2998:
.LBE3029:
.LBE3060:
.LBE3262:
.LBB3263:
.LBB3199:
.LBB3148:
.LBB3097:
	.loc 2 194 6 view .LVU3935
	mul	x2, x15, x26
.LBE3097:
.LBE3148:
.LBE3199:
.LBE3263:
.LBB3264:
.LBB3061:
.LBB3030:
.LBB2999:
	.loc 2 227 7 view .LVU3936
	cinc	x22, x3, cs
.LBE2999:
.LBE3030:
.LBE3061:
.LBE3264:
.LBB3265:
.LBB3200:
.LBB3149:
.LBB3098:
	.loc 2 192 6 view .LVU3937
	mul	x14, x18, x10
.LVL358:
	.loc 2 192 6 view .LVU3938
.LBE3098:
.LBE3149:
.LBE3200:
.LBE3265:
.LBB3266:
.LBB3062:
.LBB3031:
.LBB3000:
	.loc 2 227 7 view .LVU3939
	adds	x21, x25, x21
	adc	x6, x6, x22
.LVL359:
	.loc 2 228 3 is_stmt 1 view .LVU3940
	.loc 2 229 3 view .LVU3941
.LBE3000:
.LBE3031:
.LBE3062:
.LBE3266:
.LBB3267:
.LBB3201:
.LBB3150:
.LBB3099:
	.loc 2 189 52 is_stmt 0 view .LVU3942
	lsl	x7, x7, 2
	.loc 2 194 6 view .LVU3943
	umulh	x24, x15, x26
	.loc 2 211 7 view .LVU3944
	adds	x14, x14, x2
	.loc 2 192 6 view .LVU3945
	umulh	x3, x18, x10
	.loc 2 189 52 view .LVU3946
	sub	x7, x7, x28
	.loc 2 195 7 view .LVU3947
	mul	x2, x5, x19
.LBE3099:
.LBE3150:
.LBE3201:
.LBE3267:
.LBB3268:
.LBB3063:
.LBB3032:
.LBB3001:
	.loc 2 228 24 view .LVU3948
	extr	x6, x6, x21, 51
.LVL360:
	.loc 2 228 24 view .LVU3949
.LBE3001:
.LBE3032:
.LBE3063:
.LBE3268:
.LBB3269:
.LBB3202:
.LBB3151:
.LBB3100:
	.loc 2 210 7 view .LVU3950
	mul	x22, x17, x11
.LVL361:
	.loc 2 210 7 view .LVU3951
.LBE3100:
.LBE3151:
.LBE3202:
.LBE3269:
.LBB3270:
.LBB3064:
.LBB3033:
.LBB3002:
	.loc 2 230 3 is_stmt 1 view .LVU3952
	.loc 2 231 3 view .LVU3953
.LBE3002:
.LBE3033:
.LBE3064:
.LBE3270:
.LBB3271:
.LBB3203:
.LBB3152:
.LBB3101:
	.loc 2 211 7 is_stmt 0 view .LVU3954
	adc	x3, x3, x24
	.loc 2 195 7 view .LVU3955
	umulh	x25, x5, x19
	.loc 2 195 7 view .LVU3956
.LBE3101:
.LBE3152:
.LBE3203:
.LBE3271:
.LBB3272:
.LBB3065:
.LBB3034:
.LBB3003:
	.loc 2 230 7 view .LVU3957
	add	x24, x6, x6, lsl 2
.LBE3003:
.LBE3034:
.LBE3065:
.LBE3272:
.LBB3273:
.LBB3204:
.LBB3153:
.LBB3102:
	.loc 2 211 7 view .LVU3958
	adds	x22, x2, x22
	.loc 2 210 7 view .LVU3959
	umulh	x2, x17, x11
.LBE3102:
.LBE3153:
.LBE3204:
.LBE3273:
.LBB3274:
.LBB3066:
.LBB3035:
.LBB3004:
	.loc 2 229 7 view .LVU3960
	and	x11, x21, 2251799813685247
.LBE3004:
.LBE3035:
.LBE3066:
.LBE3274:
.LBB3275:
.LBB3205:
.LBB3154:
.LBB3103:
	.loc 2 189 6 view .LVU3961
	mul	x21, x7, x12
	.loc 2 211 7 view .LVU3962
	adc	x2, x25, x2
	.loc 2 189 6 view .LVU3963
	umulh	x7, x7, x12
	.loc 2 211 7 view .LVU3964
	adds	x14, x14, x22
.LBE3103:
.LBE3154:
.LBE3205:
.LBE3275:
.LBB3276:
.LBB3067:
.LBB3036:
.LBB3005:
	.loc 2 230 7 view .LVU3965
	lsl	x24, x24, 2
.LBE3005:
.LBE3036:
.LBE3067:
.LBE3276:
.LBB3277:
.LBB3206:
.LBB3155:
.LBB3104:
	.loc 2 211 7 view .LVU3966
	adc	x3, x3, x2
	adds	x14, x14, x21
	.loc 2 191 6 view .LVU3967
	mul	x2, x15, x10
	.loc 2 211 7 view .LVU3968
	adc	x3, x3, x7
	.loc 2 193 6 view .LVU3969
	mul	x21, x5, x26
.LBE3104:
.LBE3155:
.LBE3206:
.LBE3277:
.LBB3278:
.LBB3068:
.LBB3037:
.LBB3006:
	.loc 2 230 7 view .LVU3970
	sub	x24, x24, x6
.LBE3006:
.LBE3037:
.LBE3068:
.LBE3278:
.LBB3279:
.LBB3207:
.LBB3156:
.LBB3105:
	.loc 2 191 6 view .LVU3971
	umulh	x7, x15, x10
.LBE3105:
.LBE3156:
.LBE3207:
.LBE3279:
.LBB3280:
.LBB3069:
.LBB3038:
.LBB3007:
	.loc 2 231 7 view .LVU3972
	add	x24, x24, x13
.LBE3007:
.LBE3038:
.LBE3069:
.LBE3280:
.LBB3281:
.LBB3208:
.LBB3157:
.LBB3106:
	.loc 2 193 6 view .LVU3973
	umulh	x6, x5, x26
	.loc 2 218 7 view .LVU3974
	adds	x2, x2, x21
	.loc 2 205 7 view .LVU3975
	mul	x21, x19, x17
.LBE3106:
.LBE3157:
.LBE3208:
.LBE3281:
.LBB3282:
.LBB3070:
.LBB3039:
.LBB3008:
	.loc 2 232 3 is_stmt 1 view .LVU3976
	.loc 2 233 3 view .LVU3977
.LBE3008:
.LBE3039:
.LBE3070:
.LBE3282:
.LBB3283:
.LBB3209:
.LBB3158:
.LBB3107:
	.loc 2 212 24 is_stmt 0 view .LVU3978
	extr	x3, x3, x14, 51
	.loc 2 218 7 view .LVU3979
	adc	x7, x7, x6
	.loc 2 205 7 view .LVU3980
	umulh	x13, x19, x17
.LVL362:
	.loc 2 209 7 view .LVU3981
	ldr	x6, [sp, 112]
	.loc 2 213 7 view .LVU3982
	and	x14, x14, 2251799813685247
	str	x14, [sp, 96]
.LVL363:
	.loc 2 207 7 view .LVU3983
	fmov	x14, d2
.LBE3107:
.LBE3158:
.LBE3209:
.LBE3283:
.LBB3284:
.LBB3071:
.LBB3040:
.LBB3009:
	.loc 2 234 7 view .LVU3984
	add	x20, x20, x24, lsr 51
.LVL364:
	.loc 2 229 7 view .LVU3985
	str	x11, [sp, 144]
.LVL365:
	.loc 2 229 7 view .LVU3986
.LBE3009:
.LBE3040:
.LBE3071:
.LBE3284:
.LBB3285:
.LBB3210:
.LBB3159:
.LBB3108:
	.loc 2 209 7 view .LVU3987
	mul	x6, x28, x6
.LBE3108:
.LBE3159:
.LBE3210:
.LBE3285:
.LBB3286:
.LBB3072:
.LBB3041:
.LBB3010:
	.loc 2 233 7 view .LVU3988
	and	x24, x24, 2251799813685247
.LBE3010:
.LBE3041:
.LBE3072:
.LBE3286:
.LBB3287:
.LBB3288:
.LBB3289:
.LBB3290:
	.loc 2 187 47 view .LVU3989
	ldr	x30, [x1, 144]
.LBE3290:
.LBE3289:
.LBE3288:
.LBE3287:
.LBB3477:
.LBB3211:
.LBB3160:
.LBB3109:
	.loc 2 218 7 view .LVU3990
	adds	x21, x21, x6
	.loc 2 209 7 view .LVU3991
	ldr	x6, [sp, 112]
	umulh	x6, x28, x6
	.loc 2 218 7 view .LVU3992
	adc	x6, x13, x6
	.loc 2 188 6 view .LVU3993
	mul	x13, x12, x18
	.loc 2 218 7 view .LVU3994
	adds	x2, x2, x21
	.loc 2 188 6 view .LVU3995
	umulh	x18, x12, x18
	.loc 2 218 7 view .LVU3996
	adc	x22, x7, x6
	adds	x3, x3, x13
	.loc 2 190 6 view .LVU3997
	mul	x7, x5, x10
	.loc 2 218 7 view .LVU3998
	cinc	x18, x18, cs
	.loc 2 201 7 view .LVU3999
	mul	x13, x17, x26
	.loc 2 218 7 view .LVU4000
	adds	x2, x2, x3
	adc	x18, x22, x18
	.loc 2 201 7 view .LVU4001
	umulh	x21, x26, x17
	.loc 2 221 7 view .LVU4002
	adds	x7, x7, x13
	.loc 2 204 7 view .LVU4003
	mul	x3, x19, x28
	.loc 2 208 7 view .LVU4004
	ldr	x13, [sp, 112]
	.loc 2 190 6 view .LVU4005
	umulh	x6, x5, x10
	.loc 2 198 7 view .LVU4006
	mul	x22, x10, x17
	.loc 2 219 24 view .LVU4007
	extr	x18, x18, x2, 51
	.loc 2 221 7 view .LVU4008
	adc	x6, x6, x21
	.loc 2 220 7 view .LVU4009
	and	x2, x2, 2251799813685247
	.loc 2 208 7 view .LVU4010
	mul	x25, x23, x13
	.loc 2 204 7 view .LVU4011
	umulh	x13, x19, x28
	.loc 2 221 7 view .LVU4012
	adds	x25, x3, x25
	.loc 2 208 7 view .LVU4013
	ldr	x3, [sp, 112]
.LBE3109:
.LBE3160:
.LBE3211:
.LBE3477:
.LBB3478:
.LBB3415:
.LBB3353:
.LBB3291:
	.loc 2 186 47 view .LVU4014
	ldr	x21, [x1, 152]
.LBE3291:
.LBE3353:
.LBE3415:
.LBE3478:
.LBB3479:
.LBB3212:
.LBB3161:
.LBB3110:
	.loc 2 208 7 view .LVU4015
	umulh	x3, x23, x3
	.loc 2 221 7 view .LVU4016
	adc	x3, x13, x3
	.loc 2 187 6 view .LVU4017
	mul	x13, x12, x15
	.loc 2 221 7 view .LVU4018
	adds	x25, x7, x25
	.loc 2 187 6 view .LVU4019
	umulh	x15, x12, x15
	.loc 2 221 7 view .LVU4020
	adc	x3, x6, x3
	.loc 2 200 7 view .LVU4021
	mul	x6, x28, x26
	.loc 2 221 7 view .LVU4022
	adds	x18, x18, x13
	.loc 2 198 7 view .LVU4023
	umulh	x7, x10, x17
	.loc 2 221 7 view .LVU4024
	cinc	x15, x15, cs
	adds	x25, x25, x18
	.loc 2 203 7 view .LVU4025
	mul	x13, x19, x23
	.loc 2 221 7 view .LVU4026
	adc	x3, x3, x15
	.loc 2 200 7 view .LVU4027
	umulh	x18, x26, x28
	.loc 2 224 7 view .LVU4028
	adds	x22, x22, x6
	.loc 2 207 7 view .LVU4029
	mul	x6, x16, x14
	.loc 2 222 24 view .LVU4030
	extr	x3, x3, x25, 51
	.loc 2 224 7 view .LVU4031
	adc	x7, x7, x18
	.loc 2 203 7 view .LVU4032
	umulh	x18, x19, x23
	.loc 2 224 7 view .LVU4033
	adds	x13, x13, x6
	.loc 2 207 7 view .LVU4034
	umulh	x6, x16, x14
.LBE3110:
.LBE3161:
.LBE3212:
.LBE3479:
.LBB3480:
.LBB3416:
.LBB3354:
.LBB3292:
	.loc 2 186 34 view .LVU4035
	ldr	x15, [x8, 112]
.LBE3292:
.LBE3354:
.LBE3416:
.LBE3480:
.LBB3481:
.LBB3213:
.LBB3162:
.LBB3111:
	.loc 2 224 7 view .LVU4036
	adc	x6, x18, x6
	adds	x22, x22, x13
	.loc 2 223 7 view .LVU4037
	and	x25, x25, 2251799813685247
	.loc 2 224 7 view .LVU4038
	adc	x7, x7, x6
	.loc 2 186 6 view .LVU4039
	mul	x6, x12, x5
.LBE3111:
.LBE3162:
.LBE3213:
.LBE3481:
.LBB3482:
.LBB3417:
.LBB3355:
.LBB3293:
	.loc 2 188 47 view .LVU4040
	ldp	x13, x18, [x1, 128]
.LBE3293:
.LBE3355:
.LBE3417:
.LBE3482:
.LBB3483:
.LBB3214:
.LBB3163:
.LBB3112:
	.loc 2 186 6 view .LVU4041
	umulh	x5, x12, x5
	.loc 2 224 7 view .LVU4042
	adds	x3, x3, x6
.LVL366:
	.loc 2 224 7 view .LVU4043
.LBE3112:
.LBE3163:
.LBE3214:
.LBE3483:
.LBB3484:
.LBB3073:
.LBB3042:
.LBB3011:
	.loc 2 234 3 is_stmt 1 view .LVU4044
	.loc 2 235 3 view .LVU4045
	.loc 2 236 3 view .LVU4046
	.loc 2 237 7 is_stmt 0 view .LVU4047
	add	x6, x9, x20, lsr 51
.LBE3011:
.LBE3042:
.LBE3073:
.LBE3484:
.LBB3485:
.LBB3215:
.LBB3164:
.LBB3113:
	.loc 2 199 7 view .LVU4048
	mul	x9, x23, x26
.LVL367:
	.loc 2 224 7 view .LVU4049
	cinc	x5, x5, cs
	.loc 2 199 7 view .LVU4050
	umulh	x23, x26, x23
	.loc 2 224 7 view .LVU4051
	adds	x22, x22, x3
	.loc 2 206 7 view .LVU4052
	ldr	x26, [x8, 72]
	.loc 2 197 7 view .LVU4053
	mul	x3, x10, x28
	.loc 2 224 7 view .LVU4054
	adc	x5, x7, x5
	.loc 2 197 7 view .LVU4055
	umulh	x7, x10, x28
	.loc 2 227 7 view .LVU4056
	adds	x3, x3, x9
	.loc 2 196 7 view .LVU4057
	mul	x10, x12, x17
	.loc 2 206 7 view .LVU4058
	mul	x26, x26, x14
	.loc 2 227 7 view .LVU4059
	adc	x23, x7, x23
	.loc 2 202 7 view .LVU4060
	mul	x7, x19, x16
.LBE3113:
.LBE3164:
.LBE3215:
.LBE3485:
.LBB3486:
.LBB3418:
.LBB3356:
.LBB3294:
	.loc 2 188 52 view .LVU4061
	add	x9, x18, x18, lsl 2
.LBE3294:
.LBE3356:
.LBE3418:
.LBE3486:
.LBB3487:
.LBB3216:
.LBB3165:
.LBB3114:
	.loc 2 202 7 view .LVU4062
	umulh	x19, x19, x16
.LBE3114:
.LBE3165:
.LBE3216:
.LBE3487:
.LBB3488:
.LBB3074:
.LBB3043:
.LBB3012:
	.loc 2 237 7 view .LVU4063
	str	x6, [sp, 160]
.LBE3012:
.LBE3043:
.LBE3074:
.LBE3488:
.LBB3489:
.LBB3217:
.LBB3166:
.LBB3115:
	.loc 2 206 7 view .LVU4064
	umulh	x28, x14, x27
	.loc 2 225 24 view .LVU4065
	extr	x6, x5, x22, 51
	.loc 2 196 7 view .LVU4066
	umulh	x17, x12, x17
.LBE3115:
.LBE3166:
.LBE3217:
.LBE3489:
.LBB3490:
.LBB3419:
.LBB3357:
.LBB3295:
	.loc 2 189 52 view .LVU4067
	add	x5, x13, x13, lsl 2
	.loc 2 193 34 view .LVU4068
	ldp	x12, x11, [x8, 96]
.LBE3295:
.LBE3357:
.LBE3419:
.LBE3490:
.LBB3491:
.LBB3218:
.LBB3167:
.LBB3116:
	.loc 2 227 7 view .LVU4069
	adds	x7, x7, x26
	adc	x28, x19, x28
.LBE3116:
.LBE3167:
.LBE3218:
.LBE3491:
.LBB3492:
.LBB3420:
.LBB3358:
.LBB3296:
	.loc 2 189 52 view .LVU4070
	lsl	x5, x5, 2
.LBE3296:
.LBE3358:
.LBE3420:
.LBE3492:
.LBB3493:
.LBB3219:
.LBB3168:
.LBB3117:
	.loc 2 227 7 view .LVU4071
	adds	x19, x3, x7
.LBE3117:
.LBE3168:
.LBE3219:
.LBE3493:
.LBB3494:
.LBB3421:
.LBB3359:
.LBB3297:
	.loc 2 188 52 view .LVU4072
	lsl	x9, x9, 2
	.loc 2 206 35 view .LVU4073
	ldp	x8, x3, [x8, 80]
.LVL368:
	.loc 2 188 52 view .LVU4074
	sub	x9, x9, x18
.LBE3297:
.LBE3359:
.LBE3421:
.LBE3494:
.LBB3495:
.LBB3220:
.LBB3169:
.LBB3118:
	.loc 2 227 7 view .LVU4075
	adc	x23, x23, x28
.LBE3118:
.LBE3169:
.LBE3220:
.LBE3495:
.LBB3496:
.LBB3422:
.LBB3360:
.LBB3298:
	.loc 2 189 52 view .LVU4076
	sub	x16, x5, x13
.LBE3298:
.LBE3360:
.LBE3422:
.LBE3496:
.LBB3497:
.LBB3498:
.LBB3499:
	.loc 2 381 6 view .LVU4077
	ldp	x28, x14, [x1, 80]
.LBE3499:
.LBE3498:
.LBE3497:
.LBB3538:
.LBB3423:
.LBB3361:
.LBB3299:
	.loc 2 186 52 view .LVU4078
	add	x7, x21, x21, lsl 2
	.loc 2 187 52 view .LVU4079
	add	x5, x30, x30, lsl 2
.LBE3299:
.LBE3361:
.LBE3423:
.LBE3538:
.LBB3539:
.LBB3221:
.LBB3170:
.LBB3119:
	.loc 2 227 7 view .LVU4080
	adds	x6, x6, x10
	cinc	x17, x17, cs
.LBE3119:
.LBE3170:
.LBE3221:
.LBE3539:
.LBB3540:
.LBB3424:
.LBB3362:
.LBB3300:
	.loc 2 186 52 view .LVU4081
	lsl	x7, x7, 2
.LBE3300:
.LBE3362:
.LBE3424:
.LBE3540:
.LBB3541:
.LBB3222:
.LBB3171:
.LBB3120:
	.loc 2 227 7 view .LVU4082
	adds	x19, x19, x6
.LBE3120:
.LBE3171:
.LBE3222:
.LBE3541:
.LBB3542:
.LBB3425:
.LBB3363:
.LBB3301:
	.loc 2 187 52 view .LVU4083
	lsl	x5, x5, 2
	.loc 2 186 52 view .LVU4084
	sub	x7, x7, x21
	.loc 2 187 52 view .LVU4085
	sub	x5, x5, x30
	.loc 2 192 6 view .LVU4086
	mul	x6, x9, x11
.LBE3301:
.LBE3363:
.LBE3425:
.LBE3542:
.LBB3543:
.LBB3223:
.LBB3172:
.LBB3121:
	.loc 2 227 7 view .LVU4087
	adc	x17, x23, x17
.LBE3121:
.LBE3172:
.LBE3223:
.LBE3543:
.LBB3544:
.LBB3075:
.LBB3044:
.LBB3013:
	.loc 2 236 7 view .LVU4088
	and	x20, x20, 2251799813685247
.LVL369:
	.loc 2 236 7 view .LVU4089
.LBE3013:
.LBE3044:
.LBE3075:
.LBE3544:
.LBB3545:
.LBB3426:
.LBB3364:
.LBB3302:
	.loc 2 189 6 view .LVU4090
	mul	x23, x16, x15
	umulh	x16, x16, x15
.LBE3302:
.LBE3364:
.LBE3426:
.LBE3545:
.LBB3546:
.LBB3076:
.LBB3045:
.LBB3014:
	.loc 2 236 7 view .LVU4091
	str	x20, [sp, 152]
.LBE3014:
.LBE3045:
.LBE3076:
.LBE3546:
.LBB3547:
.LBB3427:
.LBB3365:
.LBB3303:
	.loc 2 192 6 view .LVU4092
	umulh	x20, x9, x11
.LBE3303:
.LBE3365:
.LBE3427:
.LBE3547:
.LBB3548:
.LBB3224:
.LBB3173:
.LBB3122:
	.loc 2 228 24 view .LVU4093
	extr	x17, x17, x19, 51
.LBE3122:
.LBE3173:
.LBE3224:
.LBE3548:
.LBB3549:
.LBB3428:
.LBB3366:
.LBB3304:
	.loc 2 211 7 view .LVU4094
	adds	x23, x23, x6
	.loc 2 195 7 view .LVU4095
	mul	x27, x7, x3
	.loc 2 211 7 view .LVU4096
	adc	x16, x16, x20
	.loc 2 194 6 view .LVU4097
	mul	x26, x5, x12
.LBE3304:
.LBE3366:
.LBE3428:
.LBE3549:
.LBB3550:
.LBB3519:
.LBB3500:
	.loc 2 381 13 view .LVU4098
	ubfx	x20, x28, 50, 13
.LBE3500:
.LBE3519:
.LBE3550:
.LBB3551:
.LBB3225:
.LBB3174:
.LBB3123:
	.loc 2 230 7 view .LVU4099
	add	x6, x17, x17, lsl 2
.LBE3123:
.LBE3174:
.LBE3225:
.LBE3551:
.LBB3552:
.LBB3429:
.LBB3367:
.LBB3305:
	.loc 2 196 47 view .LVU4100
	ldr	x10, [x1, 120]
.LBE3305:
.LBE3367:
.LBE3429:
.LBE3552:
.LBB3553:
.LBB3520:
.LBB3501:
	.loc 2 381 6 view .LVU4101
	add	x20, x20, x14, lsl 1
	.loc 2 385 13 view .LVU4102
	ubfiz	x14, x28, 1, 50
.LBE3501:
.LBE3520:
.LBE3553:
.LBB3554:
.LBB3430:
.LBB3368:
.LBB3306:
	.loc 2 211 7 view .LVU4103
	adds	x26, x26, x27
	.loc 2 195 7 view .LVU4104
	umulh	x28, x7, x3
.LBE3306:
.LBE3368:
.LBE3430:
.LBE3554:
.LBB3555:
.LBB3521:
.LBB3502:
	.loc 2 385 13 view .LVU4105
	str	x14, [sp, 176]
.LBE3502:
.LBE3521:
.LBE3555:
.LBB3556:
.LBB3226:
.LBB3175:
.LBB3124:
	.loc 2 231 7 view .LVU4106
	ldr	x14, [sp, 96]
.LBE3124:
.LBE3175:
.LBE3226:
.LBE3556:
.LBB3557:
.LBB3431:
.LBB3369:
.LBB3307:
	.loc 2 194 6 view .LVU4107
	umulh	x27, x5, x12
.LBE3307:
.LBE3369:
.LBE3431:
.LBE3557:
.LBB3558:
.LBB3227:
.LBB3176:
.LBB3125:
	.loc 2 230 7 view .LVU4108
	lsl	x6, x6, 2
.LVL370:
	.loc 2 227 3 is_stmt 1 view .LVU4109
	.loc 2 228 3 view .LVU4110
	.loc 2 229 3 view .LVU4111
	.loc 2 226 7 is_stmt 0 view .LVU4112
	and	x22, x22, 2251799813685247
.LBE3125:
.LBE3176:
.LBE3227:
.LBE3558:
.LBB3559:
.LBB3432:
.LBB3370:
.LBB3308:
	.loc 2 211 7 view .LVU4113
	adc	x27, x27, x28
.LBE3308:
.LBE3370:
.LBE3432:
.LBE3559:
.LBB3560:
.LBB3228:
.LBB3177:
.LBB3126:
	.loc 2 230 7 view .LVU4114
	sub	x6, x6, x17
.LBE3126:
.LBE3177:
.LBE3228:
.LBE3560:
.LBB3561:
.LBB3433:
.LBB3371:
.LBB3309:
	.loc 2 211 7 view .LVU4115
	adds	x23, x23, x26
.LBE3309:
.LBE3371:
.LBE3433:
.LBE3561:
.LBB3562:
.LBB3229:
.LBB3178:
.LBB3127:
	.loc 2 231 7 view .LVU4116
	add	x6, x6, x14
.LBE3127:
.LBE3178:
.LBE3229:
.LBE3562:
.LBB3563:
.LBB3434:
.LBB3372:
.LBB3310:
	.loc 2 211 7 view .LVU4117
	adc	x14, x16, x27
.LVL371:
	.loc 2 210 7 view .LVU4118
	mul	x16, x10, x8
.LBE3310:
.LBE3372:
.LBE3434:
.LBE3563:
.LBB3564:
.LBB3230:
.LBB3179:
.LBB3128:
	.loc 2 229 7 view .LVU4119
	and	x28, x19, 2251799813685247
.LBE3128:
.LBE3179:
.LBE3230:
.LBE3564:
.LBB3565:
.LBB3435:
.LBB3373:
.LBB3311:
	.loc 2 188 6 view .LVU4120
	mul	x19, x15, x9
	.loc 2 211 7 view .LVU4121
	adds	x23, x23, x16
	.loc 2 210 7 view .LVU4122
	umulh	x16, x10, x8
.LVL372:
	.loc 2 210 7 view .LVU4123
.LBE3311:
.LBE3373:
.LBE3435:
.LBE3565:
.LBB3566:
.LBB3231:
.LBB3180:
.LBB3129:
	.loc 2 230 3 is_stmt 1 view .LVU4124
	.loc 2 231 3 view .LVU4125
	.loc 2 232 3 view .LVU4126
	.loc 2 233 3 view .LVU4127
.LBE3129:
.LBE3180:
.LBE3231:
.LBE3566:
.LBB3567:
.LBB3436:
.LBB3374:
.LBB3312:
	.loc 2 188 6 is_stmt 0 view .LVU4128
	umulh	x9, x15, x9
.LBE3312:
.LBE3374:
.LBE3436:
.LBE3567:
.LBB3568:
.LBB3232:
.LBB3181:
.LBB3130:
	.loc 2 234 7 view .LVU4129
	add	x2, x2, x6, lsr 51
.LBE3130:
.LBE3181:
.LBE3232:
.LBE3568:
.LBB3569:
.LBB3437:
.LBB3375:
.LBB3313:
	.loc 2 211 7 view .LVU4130
	adc	x16, x14, x16
	.loc 2 191 6 view .LVU4131
	mul	x14, x5, x11
.LBE3313:
.LBE3375:
.LBE3437:
.LBE3569:
.LBB3570:
.LBB3233:
.LBB3182:
.LBB3131:
	.loc 2 226 7 view .LVU4132
	str	x22, [sp, 96]
.LVL373:
	.loc 2 226 7 view .LVU4133
.LBE3131:
.LBE3182:
.LBE3233:
.LBE3570:
.LBB3571:
.LBB3438:
.LBB3376:
.LBB3314:
	.loc 2 209 7 view .LVU4134
	mul	x22, x13, x8
	.loc 2 218 7 view .LVU4135
	adds	x19, x19, x14
	.loc 2 191 6 view .LVU4136
	umulh	x14, x5, x11
.LBE3314:
.LBE3376:
.LBE3438:
.LBE3571:
.LBB3572:
.LBB3234:
.LBB3183:
.LBB3132:
	.loc 2 237 7 view .LVU4137
	add	x26, x25, x2, lsr 51
.LBE3132:
.LBE3183:
.LBE3234:
.LBE3572:
.LBB3573:
.LBB3439:
.LBB3377:
.LBB3315:
	.loc 2 212 24 view .LVU4138
	extr	x16, x16, x23, 51
	.loc 2 218 7 view .LVU4139
	adc	x9, x9, x14
	.loc 2 205 7 view .LVU4140
	mul	x14, x3, x10
	umulh	x25, x3, x10
	.loc 2 213 7 view .LVU4141
	and	x23, x23, 2251799813685247
	.loc 2 218 7 view .LVU4142
	adds	x14, x14, x22
.LBE3315:
.LBE3377:
.LBE3439:
.LBE3573:
.LBB3574:
.LBB3575:
.LBB3576:
	.loc 2 437 6 view .LVU4143
	mov	x27, -38
.LBE3576:
.LBE3575:
.LBE3574:
.LBB3619:
.LBB3440:
.LBB3378:
.LBB3316:
	.loc 2 209 7 view .LVU4144
	umulh	x22, x13, x8
.LBE3316:
.LBE3378:
.LBE3440:
.LBE3619:
.LBB3620:
.LBB3235:
.LBB3184:
.LBB3133:
	.loc 2 233 7 view .LVU4145
	and	x6, x6, 2251799813685247
.LVL374:
	.loc 2 234 3 is_stmt 1 view .LVU4146
	.loc 2 235 3 view .LVU4147
	.loc 2 236 3 view .LVU4148
.LBE3133:
.LBE3184:
.LBE3235:
.LBE3620:
.LBB3621:
.LBB3622:
.LBB3623:
	.loc 2 414 6 is_stmt 0 view .LVU4149
	ldr	x17, [x1, 96]
.LVL375:
	.loc 2 414 6 view .LVU4150
.LBE3623:
.LBE3622:
.LBE3621:
.LBB3628:
.LBB3598:
.LBB3577:
	.loc 2 437 6 view .LVU4151
	movk	x27, 0xf, lsl 48
.LBE3577:
.LBE3598:
.LBE3628:
.LBB3629:
.LBB3441:
.LBB3379:
.LBB3317:
	.loc 2 213 7 view .LVU4152
	str	x23, [sp, 168]
.LBE3317:
.LBE3379:
.LBE3441:
.LBE3629:
.LBB3630:
.LBB3599:
.LBB3578:
	.loc 2 437 6 view .LVU4153
	add	x23, x24, x27
	sub	x23, x23, x6
.LBE3578:
.LBE3599:
.LBE3630:
.LBB3631:
.LBB3442:
.LBB3380:
.LBB3318:
	.loc 2 218 7 view .LVU4154
	adc	x22, x25, x22
.LBE3318:
.LBE3380:
.LBE3442:
.LBE3631:
.LBB3632:
.LBB3633:
.LBB3634:
	.loc 2 412 6 view .LVU4155
	add	x6, x6, x24
.LVL376:
	.loc 2 412 6 view .LVU4156
.LBE3634:
.LBE3633:
.LBE3632:
.LBB3647:
.LBB3443:
.LBB3381:
.LBB3319:
	.loc 2 218 7 view .LVU4157
	adds	x19, x19, x14
.LBE3319:
.LBE3381:
.LBE3443:
.LBE3647:
.LBB3648:
.LBB3626:
.LBB3624:
	.loc 2 416 6 view .LVU4158
	ldp	x24, x1, [x1, 104]
.LVL377:
	.loc 2 416 6 view .LVU4159
.LBE3624:
.LBE3626:
.LBE3648:
.LBB3649:
.LBB3444:
.LBB3382:
.LBB3320:
	.loc 2 193 6 view .LVU4160
	mul	x14, x7, x12
	.loc 2 218 7 view .LVU4161
	adc	x22, x9, x22
	.loc 2 193 6 view .LVU4162
	umulh	x9, x7, x12
	.loc 2 218 7 view .LVU4163
	adds	x14, x16, x14
.LBE3320:
.LBE3382:
.LBE3444:
.LBE3649:
.LBB3650:
.LBB3522:
.LBB3503:
	.loc 2 382 13 view .LVU4164
	lsr	x25, x20, 51
	.loc 2 382 6 view .LVU4165
	add	x25, x25, x17, lsl 1
.LBE3503:
.LBE3522:
.LBE3650:
.LBB3651:
.LBB3445:
.LBB3383:
.LBB3321:
	.loc 2 218 7 view .LVU4166
	cinc	x9, x9, cs
	adds	x14, x19, x14
	.loc 2 187 6 view .LVU4167
	umulh	x19, x15, x5
.LBE3321:
.LBE3383:
.LBE3445:
.LBE3651:
.LBB3652:
.LBB3641:
.LBB3635:
	.loc 2 417 11 view .LVU4168
	str	x6, [x0, 40]
.LVL378:
	.loc 2 417 11 view .LVU4169
.LBE3635:
.LBE3641:
.LBE3652:
.LBB3653:
.LBB3446:
.LBB3384:
.LBB3322:
	.loc 2 187 6 view .LVU4170
	mul	x6, x15, x5
	.loc 2 190 6 view .LVU4171
	mul	x5, x7, x11
	.loc 2 218 7 view .LVU4172
	adc	x9, x22, x9
.LBE3322:
.LBE3384:
.LBE3446:
.LBE3653:
.LBB3654:
.LBB3523:
.LBB3504:
	.loc 2 383 13 view .LVU4173
	lsr	x17, x25, 51
.LBE3504:
.LBE3523:
.LBE3654:
.LBB3655:
.LBB3600:
.LBB3579:
	.loc 2 442 11 view .LVU4174
	str	x23, [x0]
	.loc 2 442 11 view .LVU4175
.LBE3579:
.LBE3600:
.LBE3655:
.LBB3656:
.LBB3447:
.LBB3385:
.LBB3323:
	.loc 2 221 7 view .LVU4176
	adds	x6, x6, x5
	.loc 2 190 6 view .LVU4177
	umulh	x5, x7, x11
.LBE3323:
.LBE3385:
.LBE3447:
.LBE3656:
.LBB3657:
.LBB3524:
.LBB3505:
	.loc 2 383 6 view .LVU4178
	add	x17, x17, x24, lsl 1
.LBE3505:
.LBE3524:
.LBE3657:
.LBB3658:
.LBB3448:
.LBB3386:
.LBB3324:
	.loc 2 204 7 view .LVU4179
	mul	x23, x3, x13
	.loc 2 221 7 view .LVU4180
	adc	x19, x19, x5
	.loc 2 201 7 view .LVU4181
	mul	x5, x12, x10
.LBE3324:
.LBE3386:
.LBE3448:
.LBE3658:
.LBB3659:
.LBB3525:
.LBB3506:
	.loc 2 384 13 view .LVU4182
	lsr	x16, x17, 51
.LBE3506:
.LBE3525:
.LBE3659:
.LBB3660:
.LBB3449:
.LBB3387:
.LBB3325:
	.loc 2 219 24 view .LVU4183
	extr	x9, x9, x14, 51
.LBE3325:
.LBE3387:
.LBE3449:
.LBE3660:
.LBB3661:
.LBB3526:
.LBB3507:
	.loc 2 384 6 view .LVU4184
	add	x16, x16, x1, lsl 1
.LBE3507:
.LBE3526:
.LBE3661:
.LBB3662:
.LBB3450:
.LBB3388:
.LBB3326:
	.loc 2 221 7 view .LVU4185
	adds	x1, x5, x23
	.loc 2 204 7 view .LVU4186
	umulh	x23, x3, x13
.LBE3326:
.LBE3388:
.LBE3450:
.LBE3662:
.LBB3663:
.LBB3527:
.LBB3508:
	.loc 2 391 7 view .LVU4187
	and	x22, x16, 2251799813685247
.LBE3508:
.LBE3527:
.LBE3663:
.LBB3664:
.LBB3451:
.LBB3389:
.LBB3327:
	.loc 2 201 7 view .LVU4188
	umulh	x5, x12, x10
.LBE3327:
.LBE3389:
.LBE3451:
.LBE3664:
.LBB3665:
.LBB3528:
.LBB3509:
	.loc 2 385 49 view .LVU4189
	lsr	x16, x16, 51
.LBE3509:
.LBE3528:
.LBE3665:
.LBB3666:
.LBB3452:
.LBB3390:
.LBB3328:
	.loc 2 203 7 view .LVU4190
	umulh	x27, x3, x18
.LBE3328:
.LBE3390:
.LBE3452:
.LBE3666:
.LBB3667:
.LBB3529:
.LBB3510:
	.loc 2 386 44 view .LVU4191
	and	x20, x20, 2251799813685247
.LBE3510:
.LBE3529:
.LBE3667:
.LBB3668:
.LBB3453:
.LBB3391:
.LBB3329:
	.loc 2 221 7 view .LVU4192
	adc	x5, x5, x23
	adds	x6, x6, x1
	.loc 2 208 7 view .LVU4193
	mul	x1, x18, x8
	.loc 2 221 7 view .LVU4194
	adc	x19, x19, x5
.LBE3329:
.LBE3391:
.LBE3453:
.LBE3668:
.LBB3669:
.LBB3530:
.LBB3511:
	.loc 2 385 56 view .LVU4195
	add	x5, x16, x16, lsl 2
	.loc 2 389 45 view .LVU4196
	and	x25, x25, 2251799813685247
.LBE3511:
.LBE3530:
.LBE3669:
.LBB3670:
.LBB3454:
.LBB3392:
.LBB3330:
	.loc 2 221 7 view .LVU4197
	adds	x9, x9, x1
	.loc 2 208 7 view .LVU4198
	umulh	x1, x18, x8
.LBE3330:
.LBE3392:
.LBE3454:
.LBE3670:
.LBB3671:
.LBB3531:
.LBB3512:
	.loc 2 385 56 view .LVU4199
	lsl	x5, x5, 2
.LBE3512:
.LBE3531:
.LBE3671:
.LBB3672:
.LBB3236:
.LBB3185:
.LBB3134:
	.loc 2 236 7 view .LVU4200
	and	x2, x2, 2251799813685247
.LVL379:
	.loc 2 237 3 is_stmt 1 view .LVU4201
	.loc 2 238 3 view .LVU4202
	.loc 2 239 3 view .LVU4203
	.loc 2 240 3 view .LVU4204
	.loc 2 241 3 view .LVU4205
	.loc 2 242 3 view .LVU4206
	.loc 2 242 3 is_stmt 0 view .LVU4207
.LBE3134:
.LBE3185:
	.loc 1 236 3 is_stmt 1 view .LVU4208
	.loc 1 236 3 view .LVU4209
	.loc 1 236 3 view .LVU4210
.LBE3236:
.LBE3672:
	.loc 1 611 3 view .LVU4211
.LBB3673:
.LBI3287:
	.loc 1 253 13 view .LVU4212
	.loc 1 254 3 view .LVU4213
.LBB3455:
.LBI3288:
	.loc 1 230 13 view .LVU4214
	.loc 1 233 3 view .LVU4215
	.loc 1 233 3 view .LVU4216
	.loc 1 234 3 view .LVU4217
	.loc 1 235 3 view .LVU4218
.LBB3393:
.LBI3289:
	.loc 2 133 36 view .LVU4219
.LBB3331:
	.loc 2 134 3 view .LVU4220
	.loc 2 135 3 view .LVU4221
	.loc 2 136 3 view .LVU4222
	.loc 2 137 3 view .LVU4223
	.loc 2 138 3 view .LVU4224
	.loc 2 139 3 view .LVU4225
	.loc 2 140 3 view .LVU4226
	.loc 2 141 3 view .LVU4227
	.loc 2 142 3 view .LVU4228
	.loc 2 143 3 view .LVU4229
	.loc 2 144 3 view .LVU4230
	.loc 2 145 3 view .LVU4231
	.loc 2 146 3 view .LVU4232
	.loc 2 147 3 view .LVU4233
	.loc 2 148 3 view .LVU4234
	.loc 2 149 3 view .LVU4235
	.loc 2 150 3 view .LVU4236
	.loc 2 151 3 view .LVU4237
	.loc 2 152 3 view .LVU4238
	.loc 2 153 3 view .LVU4239
	.loc 2 154 3 view .LVU4240
	.loc 2 155 3 view .LVU4241
	.loc 2 156 3 view .LVU4242
	.loc 2 157 3 view .LVU4243
	.loc 2 158 3 view .LVU4244
	.loc 2 159 3 view .LVU4245
	.loc 2 160 3 view .LVU4246
	.loc 2 161 3 view .LVU4247
	.loc 2 162 3 view .LVU4248
	.loc 2 163 3 view .LVU4249
	.loc 2 164 3 view .LVU4250
	.loc 2 165 3 view .LVU4251
	.loc 2 166 3 view .LVU4252
	.loc 2 167 3 view .LVU4253
	.loc 2 168 3 view .LVU4254
	.loc 2 169 3 view .LVU4255
	.loc 2 170 3 view .LVU4256
	.loc 2 171 3 view .LVU4257
	.loc 2 172 3 view .LVU4258
	.loc 2 173 3 view .LVU4259
	.loc 2 174 3 view .LVU4260
	.loc 2 175 3 view .LVU4261
	.loc 2 176 3 view .LVU4262
	.loc 2 177 3 view .LVU4263
	.loc 2 178 3 view .LVU4264
	.loc 2 179 3 view .LVU4265
	.loc 2 180 3 view .LVU4266
	.loc 2 181 3 view .LVU4267
	.loc 2 182 3 view .LVU4268
	.loc 2 183 3 view .LVU4269
	.loc 2 184 3 view .LVU4270
	.loc 2 185 3 view .LVU4271
	.loc 2 186 3 view .LVU4272
	.loc 2 187 3 view .LVU4273
	.loc 2 188 3 view .LVU4274
	.loc 2 189 3 view .LVU4275
	.loc 2 190 3 view .LVU4276
	.loc 2 191 3 view .LVU4277
	.loc 2 192 3 view .LVU4278
	.loc 2 193 3 view .LVU4279
	.loc 2 194 3 view .LVU4280
	.loc 2 195 3 view .LVU4281
	.loc 2 196 3 view .LVU4282
	.loc 2 197 3 view .LVU4283
	.loc 2 198 3 view .LVU4284
	.loc 2 199 3 view .LVU4285
	.loc 2 200 3 view .LVU4286
	.loc 2 201 3 view .LVU4287
	.loc 2 202 3 view .LVU4288
	.loc 2 203 3 view .LVU4289
	.loc 2 204 3 view .LVU4290
	.loc 2 205 3 view .LVU4291
	.loc 2 206 3 view .LVU4292
	.loc 2 207 3 view .LVU4293
	.loc 2 208 3 view .LVU4294
	.loc 2 209 3 view .LVU4295
	.loc 2 210 3 view .LVU4296
	.loc 2 211 3 view .LVU4297
	.loc 2 212 3 view .LVU4298
	.loc 2 213 3 view .LVU4299
	.loc 2 214 3 view .LVU4300
	.loc 2 215 3 view .LVU4301
	.loc 2 216 3 view .LVU4302
	.loc 2 217 3 view .LVU4303
	.loc 2 218 3 view .LVU4304
	.loc 2 219 3 view .LVU4305
	.loc 2 220 3 view .LVU4306
	.loc 2 221 3 view .LVU4307
	.loc 2 221 7 is_stmt 0 view .LVU4308
	cinc	x1, x1, cs
	adds	x6, x6, x9
	adc	x1, x19, x1
.LVL380:
	.loc 2 222 3 is_stmt 1 view .LVU4309
	.loc 2 223 3 view .LVU4310
	.loc 2 224 3 view .LVU4311
	.loc 2 207 7 is_stmt 0 view .LVU4312
	mul	x9, x30, x8
	.loc 2 203 7 view .LVU4313
	mul	x19, x3, x18
.LBE3331:
.LBE3393:
.LBE3455:
.LBE3673:
.LBB3674:
.LBB3532:
.LBB3513:
	.loc 2 385 56 view .LVU4314
	sub	x5, x5, x16
	.loc 2 385 6 view .LVU4315
	ldr	x16, [sp, 176]
.LBE3513:
.LBE3532:
.LBE3674:
.LBB3675:
.LBB3456:
.LBB3394:
.LBB3332:
	.loc 2 224 7 view .LVU4316
	adds	x19, x19, x9
	.loc 2 207 7 view .LVU4317
	umulh	x9, x30, x8
	.loc 2 222 24 view .LVU4318
	extr	x1, x1, x6, 51
.LVL381:
	.loc 2 222 24 view .LVU4319
.LBE3332:
.LBE3394:
.LBE3456:
.LBE3675:
.LBB3676:
.LBB3533:
.LBB3514:
	.loc 2 385 6 view .LVU4320
	add	x5, x5, x16
.LBE3514:
.LBE3533:
.LBE3676:
.LBB3677:
.LBB3457:
.LBB3395:
.LBB3333:
	.loc 2 198 7 view .LVU4321
	mul	x16, x11, x10
	.loc 2 224 7 view .LVU4322
	adc	x27, x27, x9
	.loc 2 200 7 view .LVU4323
	mul	x9, x12, x13
	.loc 2 222 24 view .LVU4324
	str	x1, [sp, 184]
.LBE3333:
.LBE3395:
.LBE3457:
.LBE3677:
.LBB3678:
.LBB3534:
.LBB3515:
	.loc 2 387 6 view .LVU4325
	and	x24, x5, 2251799813685247
.LBE3515:
.LBE3534:
.LBE3678:
.LBB3679:
.LBB3458:
.LBB3396:
.LBB3334:
	.loc 2 224 7 view .LVU4326
	adds	x16, x16, x9
	.loc 2 200 7 view .LVU4327
	umulh	x9, x12, x13
.LBE3334:
.LBE3396:
.LBE3458:
.LBE3679:
.LBB3680:
.LBB3535:
.LBB3516:
	.loc 2 386 6 view .LVU4328
	add	x5, x20, x5, lsr 51
.LBE3516:
.LBE3535:
.LBE3680:
.LBB3681:
.LBB3237:
.LBB3186:
.LBB3135:
	.loc 2 237 7 view .LVU4329
	str	x26, [sp, 112]
.LBE3135:
.LBE3186:
.LBE3237:
.LBE3681:
.LBB3682:
.LBB3459:
.LBB3397:
.LBB3335:
	.loc 2 200 7 view .LVU4330
	mov	x1, x9
	.loc 2 198 7 view .LVU4331
	umulh	x9, x11, x10
.LBE3335:
.LBE3397:
.LBE3459:
.LBE3682:
.LBB3683:
.LBB3536:
.LBB3517:
	.loc 2 388 6 view .LVU4332
	and	x23, x5, 2251799813685247
	.loc 2 389 7 view .LVU4333
	add	x5, x25, x5, lsr 51
.LBE3517:
.LBE3536:
.LBE3683:
.LBB3684:
.LBB3460:
.LBB3398:
.LBB3336:
	.loc 2 224 7 view .LVU4334
	adc	x9, x9, x1
	adds	x16, x19, x16
	ldr	x1, [sp, 184]
	.loc 2 186 6 view .LVU4335
	mul	x19, x15, x7
.LBE3336:
.LBE3398:
.LBE3460:
.LBE3684:
.LBB3685:
.LBB3601:
.LBB3580:
	.loc 2 438 6 view .LVU4336
	ldr	x25, [sp, 152]
.LBE3580:
.LBE3601:
.LBE3685:
.LBB3686:
.LBB3461:
.LBB3399:
.LBB3337:
	.loc 2 186 6 view .LVU4337
	umulh	x7, x15, x7
.LVL382:
	.loc 2 224 7 view .LVU4338
	adc	x9, x27, x9
	adds	x1, x1, x19
.LBE3337:
.LBE3399:
.LBE3461:
.LBE3686:
.LBB3687:
.LBB3602:
.LBB3581:
	.loc 2 438 6 view .LVU4339
	add	x26, x25, x4
.LBE3581:
.LBE3602:
.LBE3687:
.LBB3688:
.LBB3462:
.LBB3400:
.LBB3338:
	.loc 2 224 7 view .LVU4340
	cinc	x7, x7, cs
	adds	x1, x16, x1
.LBE3338:
.LBE3400:
.LBE3462:
.LBE3688:
.LBB3689:
.LBB3642:
.LBB3636:
	.loc 2 413 6 view .LVU4341
	add	x25, x2, x25
.LBE3636:
.LBE3642:
.LBE3689:
.LBB3690:
.LBB3603:
.LBB3582:
	.loc 2 438 6 view .LVU4342
	sub	x26, x26, x2
.LBE3582:
.LBE3603:
.LBE3690:
.LBB3691:
.LBB3463:
.LBB3401:
.LBB3339:
	.loc 2 224 7 view .LVU4343
	adc	x9, x9, x7
	.loc 2 199 7 view .LVU4344
	mul	x2, x12, x18
.LBE3339:
.LBE3401:
.LBE3463:
.LBE3691:
.LBB3692:
.LBB3643:
.LBB3637:
	.loc 2 418 11 view .LVU4345
	str	x25, [x0, 48]
.LBE3637:
.LBE3643:
.LBE3692:
.LBB3693:
.LBB3464:
.LBB3402:
.LBB3340:
	.loc 2 202 7 view .LVU4346
	mul	x7, x3, x30
	.loc 2 225 24 view .LVU4347
	extr	x9, x9, x1, 51
	.loc 2 199 7 view .LVU4348
	umulh	x12, x12, x18
.LVL383:
	.loc 2 220 7 view .LVU4349
	and	x14, x14, 2251799813685247
.LVL384:
	.loc 2 202 7 view .LVU4350
	umulh	x3, x3, x30
.LVL385:
	.loc 2 227 7 view .LVU4351
	adds	x7, x2, x7
	.loc 2 196 7 view .LVU4352
	mul	x2, x15, x10
.LBE3340:
.LBE3402:
.LBE3464:
.LBE3693:
.LBB3694:
.LBB3604:
.LBB3583:
	.loc 2 443 11 view .LVU4353
	str	x26, [x0, 8]
.LBE3583:
.LBE3604:
.LBE3694:
.LBB3695:
.LBB3465:
.LBB3403:
.LBB3341:
	.loc 2 227 7 view .LVU4354
	adc	x3, x12, x3
	.loc 2 197 7 view .LVU4355
	mul	x12, x11, x13
	.loc 2 196 7 view .LVU4356
	umulh	x10, x15, x10
.LVL386:
	.loc 2 196 7 view .LVU4357
.LBE3341:
.LBE3403:
.LBE3465:
.LBE3695:
.LBB3696:
.LBB3537:
.LBB3518:
	.loc 2 390 7 view .LVU4358
	and	x17, x17, 2251799813685247
.LBE3518:
.LBE3537:
.LBE3696:
.LBB3697:
.LBB3466:
.LBB3404:
.LBB3342:
	.loc 2 197 7 view .LVU4359
	umulh	x11, x11, x13
.LVL387:
	.loc 2 227 7 view .LVU4360
	adds	x2, x2, x12
	.loc 2 206 7 view .LVU4361
	mul	x12, x8, x21
	.loc 2 223 7 view .LVU4362
	and	x6, x6, 2251799813685247
.LVL388:
	.loc 2 227 7 view .LVU4363
	adc	x10, x10, x11
	.loc 2 206 7 view .LVU4364
	umulh	x8, x8, x21
.LVL389:
	.loc 2 227 7 view .LVU4365
	adds	x7, x7, x2
.LBE3342:
.LBE3404:
.LBE3466:
.LBE3697:
.LBB3698:
.LBB3699:
.LBB3700:
	.loc 2 437 6 view .LVU4366
	mov	x20, -38
.LBE3700:
.LBE3699:
.LBE3698:
.LBB3717:
.LBB3467:
.LBB3405:
.LBB3343:
	.loc 2 227 7 view .LVU4367
	adc	x3, x3, x10
	adds	x9, x9, x12
	cinc	x8, x8, cs
	adds	x7, x7, x9
	adc	x3, x3, x8
	.loc 2 229 7 view .LVU4368
	and	x12, x7, 2251799813685247
.LBE3343:
.LBE3405:
.LBE3467:
.LBE3717:
.LBB3718:
.LBB3605:
.LBB3584:
	.loc 2 440 6 view .LVU4369
	ldr	x18, [sp, 136]
	.loc 2 440 6 view .LVU4370
.LBE3584:
.LBE3605:
.LBE3718:
.LBB3719:
.LBB3468:
.LBB3406:
.LBB3344:
	.loc 2 228 24 view .LVU4371
	extr	x3, x3, x7, 51
.LBE3344:
.LBE3406:
.LBE3468:
.LBE3719:
.LBB3720:
.LBB3606:
.LBB3585:
	.loc 2 440 6 view .LVU4372
	ldr	x21, [sp, 96]
.LVL390:
	.loc 2 440 6 view .LVU4373
.LBE3585:
.LBE3606:
.LBE3720:
.LBB3721:
.LBB3469:
.LBB3407:
.LBB3345:
	.loc 2 230 7 view .LVU4374
	add	x2, x3, x3, lsl 2
.LBE3345:
.LBE3407:
.LBE3469:
.LBE3721:
.LBB3722:
.LBB3607:
.LBB3586:
	.loc 2 439 6 view .LVU4375
	ldr	x25, [sp, 160]
.LBE3586:
.LBE3607:
.LBE3722:
.LBB3723:
.LBB3470:
.LBB3408:
.LBB3346:
	.loc 2 230 7 view .LVU4376
	lsl	x2, x2, 2
	sub	x2, x2, x3
.LBE3346:
.LBE3408:
.LBE3470:
.LBE3723:
.LBB3724:
.LBB3608:
.LBB3587:
	.loc 2 440 6 view .LVU4377
	add	x15, x18, x4
.LVL391:
	.loc 2 440 6 view .LVU4378
.LBE3587:
.LBE3608:
.LBE3724:
.LBB3725:
.LBB3471:
.LBB3409:
.LBB3347:
	.loc 2 231 7 view .LVU4379
	ldr	x3, [sp, 168]
.LBE3347:
.LBE3409:
.LBE3471:
.LBE3725:
.LBB3726:
.LBB3609:
.LBB3588:
	.loc 2 440 6 view .LVU4380
	sub	x9, x15, x21
	.loc 2 439 6 view .LVU4381
	ldr	x26, [sp, 112]
.LBE3588:
.LBE3609:
.LBE3726:
.LBB3727:
.LBB3472:
.LBB3410:
.LBB3348:
	.loc 2 225 3 is_stmt 1 view .LVU4382
	.loc 2 226 3 view .LVU4383
	.loc 2 231 7 is_stmt 0 view .LVU4384
	add	x2, x2, x3
.LBE3348:
.LBE3410:
.LBE3472:
.LBE3727:
.LBB3728:
.LBB3610:
.LBB3589:
	.loc 2 441 6 view .LVU4385
	ldr	x19, [sp, 144]
.LBE3589:
.LBE3610:
.LBE3728:
.LBB3729:
.LBB3644:
.LBB3638:
	.loc 2 415 6 view .LVU4386
	add	x15, x21, x18
.LBE3638:
.LBE3644:
.LBE3729:
.LBB3730:
.LBB3473:
.LBB3411:
.LBB3349:
	.loc 2 233 7 view .LVU4387
	and	x18, x2, 2251799813685247
	.loc 2 234 7 view .LVU4388
	add	x2, x14, x2, lsr 51
.LBE3349:
.LBE3411:
.LBE3473:
.LBE3730:
.LBB3731:
.LBB3611:
.LBB3590:
	.loc 2 439 6 view .LVU4389
	add	x16, x25, x4
.LBE3590:
.LBE3611:
.LBE3731:
.LBB3732:
.LBB3474:
.LBB3412:
.LBB3350:
	.loc 2 236 7 view .LVU4390
	and	x14, x2, 2251799813685247
.LVL392:
	.loc 2 226 7 view .LVU4391
	and	x1, x1, 2251799813685247
.LVL393:
	.loc 2 227 3 is_stmt 1 view .LVU4392
	.loc 2 228 3 view .LVU4393
	.loc 2 229 3 view .LVU4394
	.loc 2 230 3 view .LVU4395
	.loc 2 231 3 view .LVU4396
.LBE3350:
.LBE3412:
.LBE3474:
.LBE3732:
.LBB3733:
.LBB3612:
.LBB3591:
	.loc 2 439 6 is_stmt 0 view .LVU4397
	sub	x16, x16, x26
.LBE3591:
.LBE3612:
.LBE3733:
.LBB3734:
.LBB3709:
.LBB3701:
	.loc 2 438 6 view .LVU4398
	add	x11, x23, x4
	.loc 2 439 6 view .LVU4399
	add	x8, x5, x4
	.loc 2 440 6 view .LVU4400
	add	x7, x17, x4
.LBE3701:
.LBE3709:
.LBE3734:
.LBB3735:
.LBB3613:
.LBB3592:
	.loc 2 441 6 view .LVU4401
	add	x13, x19, x4
	.loc 2 441 6 view .LVU4402
.LBE3592:
.LBE3613:
.LBE3735:
.LBB3736:
.LBB3475:
.LBB3413:
.LBB3351:
	.loc 2 237 7 view .LVU4403
	add	x2, x6, x2, lsr 51
.LBE3351:
.LBE3413:
.LBE3475:
.LBE3736:
.LBB3737:
.LBB3710:
.LBB3702:
	.loc 2 441 6 view .LVU4404
	add	x4, x22, x4
.LBE3702:
.LBE3710:
.LBE3737:
.LBB3738:
.LBB3476:
.LBB3414:
.LBB3352:
	.loc 2 232 3 is_stmt 1 view .LVU4405
	.loc 2 233 3 view .LVU4406
.LVL394:
	.loc 2 234 3 view .LVU4407
	.loc 2 235 3 view .LVU4408
	.loc 2 236 3 view .LVU4409
	.loc 2 237 3 view .LVU4410
	.loc 2 238 3 view .LVU4411
	.loc 2 239 3 view .LVU4412
	.loc 2 240 3 view .LVU4413
	.loc 2 241 3 view .LVU4414
	.loc 2 242 3 view .LVU4415
	.loc 2 242 3 is_stmt 0 view .LVU4416
.LBE3352:
.LBE3414:
	.loc 1 236 3 is_stmt 1 view .LVU4417
	.loc 1 236 3 view .LVU4418
	.loc 1 236 3 view .LVU4419
	.loc 1 236 3 is_stmt 0 view .LVU4420
.LBE3476:
.LBE3738:
	.loc 1 612 3 is_stmt 1 view .LVU4421
.LBB3739:
.LBI3621:
	.loc 1 208 13 view .LVU4422
	.loc 1 209 3 view .LVU4423
	.loc 1 209 3 view .LVU4424
	.loc 1 210 3 view .LVU4425
	.loc 1 211 3 view .LVU4426
.LBB3627:
.LBI3622:
	.loc 2 406 36 view .LVU4427
.LBB3625:
	.loc 2 407 3 view .LVU4428
	.loc 2 408 3 view .LVU4429
	.loc 2 409 3 view .LVU4430
	.loc 2 410 3 view .LVU4431
	.loc 2 411 3 view .LVU4432
	.loc 2 412 3 view .LVU4433
	.loc 2 413 3 view .LVU4434
	.loc 2 414 3 view .LVU4435
	.loc 2 415 3 view .LVU4436
	.loc 2 416 3 view .LVU4437
	.loc 2 417 3 view .LVU4438
	.loc 2 418 3 view .LVU4439
	.loc 2 419 3 view .LVU4440
	.loc 2 420 3 view .LVU4441
	.loc 2 421 3 view .LVU4442
	.loc 2 421 3 is_stmt 0 view .LVU4443
.LBE3625:
.LBE3627:
	.loc 1 212 3 is_stmt 1 view .LVU4444
	.loc 1 212 3 view .LVU4445
	.loc 1 212 3 view .LVU4446
	.loc 1 212 3 is_stmt 0 view .LVU4447
.LBE3739:
	.loc 1 613 3 is_stmt 1 view .LVU4448
.LBB3740:
.LBI3574:
	.loc 1 217 13 view .LVU4449
	.loc 1 218 3 view .LVU4450
	.loc 1 218 3 view .LVU4451
	.loc 1 219 3 view .LVU4452
	.loc 1 220 3 view .LVU4453
.LBB3614:
.LBI3575:
	.loc 2 431 36 view .LVU4454
.LBB3593:
	.loc 2 432 3 view .LVU4455
	.loc 2 433 3 view .LVU4456
	.loc 2 434 3 view .LVU4457
	.loc 2 435 3 view .LVU4458
	.loc 2 436 3 view .LVU4459
	.loc 2 437 3 view .LVU4460
	.loc 2 438 3 view .LVU4461
	.loc 2 439 3 view .LVU4462
	.loc 2 440 3 view .LVU4463
	.loc 2 441 3 view .LVU4464
	.loc 2 442 3 view .LVU4465
	.loc 2 443 3 view .LVU4466
	.loc 2 444 3 view .LVU4467
.LBE3593:
.LBE3614:
.LBE3740:
.LBB3741:
.LBB3711:
.LBB3703:
	.loc 2 437 6 is_stmt 0 view .LVU4468
	movk	x20, 0xf, lsl 48
	add	x20, x24, x20
.LBE3703:
.LBE3711:
.LBE3741:
.LBB3742:
.LBB3615:
.LBB3594:
	.loc 2 445 11 view .LVU4469
	stp	x16, x9, [x0, 16]
	.loc 2 445 11 view .LVU4470
.LBE3594:
.LBE3615:
.LBE3742:
.LBB3743:
.LBB3645:
.LBB3639:
	.loc 2 416 6 view .LVU4471
	add	x3, x28, x19
	.loc 2 414 6 view .LVU4472
	add	x10, x26, x25
.LBE3639:
.LBE3645:
.LBE3743:
.LBB3744:
.LBB3616:
.LBB3595:
	.loc 2 441 6 view .LVU4473
	sub	x13, x13, x28
.LBE3595:
.LBE3616:
.LBE3744:
.LBB3745:
.LBB3746:
.LBB3747:
	.loc 2 412 6 view .LVU4474
	add	x24, x24, x18
.LBE3747:
.LBE3746:
.LBE3745:
.LBB3754:
.LBB3712:
.LBB3704:
	.loc 2 437 6 view .LVU4475
	sub	x20, x20, x18
.LBE3704:
.LBE3712:
.LBE3754:
.LBB3755:
.LBB3751:
.LBB3748:
	.loc 2 413 6 view .LVU4476
	add	x23, x23, x14
	.loc 2 416 6 view .LVU4477
	add	x22, x22, x12
	.loc 2 415 6 view .LVU4478
	add	x17, x17, x1
.LBE3748:
.LBE3751:
.LBE3755:
.LBB3756:
.LBB3713:
.LBB3705:
	.loc 2 440 6 view .LVU4479
	sub	x7, x7, x1
	.loc 2 438 6 view .LVU4480
	sub	x11, x11, x14
.LBE3705:
.LBE3713:
.LBE3756:
.LBB3757:
.LBB3752:
.LBB3749:
	.loc 2 414 6 view .LVU4481
	add	x5, x5, x2
.LBE3749:
.LBE3752:
.LBE3757:
.LBB3758:
.LBB3714:
.LBB3706:
	.loc 2 439 6 view .LVU4482
	sub	x8, x8, x2
.LBE3706:
.LBE3714:
.LBE3758:
.LBB3759:
.LBB3617:
.LBB3596:
	.loc 2 446 3 is_stmt 1 view .LVU4483
.LBE3596:
.LBE3617:
.LBE3759:
.LBB3760:
.LBB3715:
.LBB3707:
	.loc 2 441 6 is_stmt 0 view .LVU4484
	sub	x4, x4, x12
.LBE3707:
.LBE3715:
.LBE3760:
.LBB3761:
.LBB3618:
.LBB3597:
	.loc 2 446 11 view .LVU4485
	str	x13, [x0, 32]
.LVL395:
	.loc 2 446 11 view .LVU4486
.LBE3597:
.LBE3618:
	.loc 1 221 3 is_stmt 1 view .LVU4487
	.loc 1 221 3 view .LVU4488
	.loc 1 221 3 view .LVU4489
	.loc 1 221 3 is_stmt 0 view .LVU4490
.LBE3761:
	.loc 1 614 3 is_stmt 1 view .LVU4491
.LBB3762:
.LBI3632:
	.loc 1 208 13 view .LVU4492
	.loc 1 209 3 view .LVU4493
	.loc 1 209 3 view .LVU4494
	.loc 1 210 3 view .LVU4495
	.loc 1 211 3 view .LVU4496
.LBB3646:
.LBI3633:
	.loc 2 406 36 view .LVU4497
.LBB3640:
	.loc 2 407 3 view .LVU4498
	.loc 2 408 3 view .LVU4499
	.loc 2 409 3 view .LVU4500
	.loc 2 410 3 view .LVU4501
	.loc 2 411 3 view .LVU4502
	.loc 2 412 3 view .LVU4503
	.loc 2 413 3 view .LVU4504
	.loc 2 414 3 view .LVU4505
	.loc 2 415 3 view .LVU4506
	.loc 2 416 3 view .LVU4507
	.loc 2 417 3 view .LVU4508
	.loc 2 418 3 view .LVU4509
	.loc 2 419 3 view .LVU4510
	.loc 2 420 11 is_stmt 0 view .LVU4511
	stp	x10, x15, [x0, 56]
	.loc 2 421 3 is_stmt 1 view .LVU4512
.LBE3640:
.LBE3646:
.LBE3762:
.LBB3763:
.LBB3753:
.LBB3750:
	.loc 2 417 11 is_stmt 0 view .LVU4513
	stp	x3, x24, [x0, 72]
	.loc 2 418 3 is_stmt 1 view .LVU4514
	.loc 2 419 11 is_stmt 0 view .LVU4515
	stp	x23, x5, [x0, 88]
	.loc 2 420 3 is_stmt 1 view .LVU4516
	.loc 2 421 11 is_stmt 0 view .LVU4517
	stp	x17, x22, [x0, 104]
.LBE3750:
.LBE3753:
	.loc 1 212 3 is_stmt 1 view .LVU4518
	.loc 1 212 3 view .LVU4519
	.loc 1 212 3 view .LVU4520
.LBE3763:
	.loc 1 617 3 view .LVU4521
.LVL396:
.LBB3764:
.LBI3698:
	.loc 1 217 13 view .LVU4522
	.loc 1 218 3 view .LVU4523
	.loc 1 218 3 view .LVU4524
	.loc 1 219 3 view .LVU4525
	.loc 1 220 3 view .LVU4526
.LBB3716:
.LBI3699:
	.loc 2 431 36 view .LVU4527
.LBB3708:
	.loc 2 432 3 view .LVU4528
	.loc 2 433 3 view .LVU4529
	.loc 2 434 3 view .LVU4530
	.loc 2 435 3 view .LVU4531
	.loc 2 436 3 view .LVU4532
	.loc 2 437 3 view .LVU4533
	.loc 2 438 3 view .LVU4534
	.loc 2 439 3 view .LVU4535
	.loc 2 440 3 view .LVU4536
	.loc 2 441 3 view .LVU4537
	.loc 2 442 3 view .LVU4538
	.loc 2 443 11 is_stmt 0 view .LVU4539
	stp	x20, x11, [x0, 120]
	.loc 2 444 3 is_stmt 1 view .LVU4540
	.loc 2 445 11 is_stmt 0 view .LVU4541
	stp	x8, x7, [x0, 136]
	.loc 2 446 3 is_stmt 1 view .LVU4542
	.loc 2 446 11 is_stmt 0 view .LVU4543
	str	x4, [x0, 152]
.LVL397:
	.loc 2 446 11 view .LVU4544
.LBE3708:
.LBE3716:
	.loc 1 221 3 is_stmt 1 view .LVU4545
	.loc 1 221 3 view .LVU4546
	.loc 1 221 3 view .LVU4547
	.loc 1 221 3 is_stmt 0 view .LVU4548
.LBE3764:
	.loc 1 618 1 view .LVU4549
	ldp	x19, x20, [sp, 16]
.LVL398:
	.loc 1 618 1 view .LVU4550
	ldp	x21, x22, [sp, 32]
	.loc 1 618 1 view .LVU4551
	ldp	x23, x24, [sp, 48]
	ldp	x25, x26, [sp, 64]
.LVL399:
	.loc 1 618 1 view .LVU4552
	ldp	x27, x28, [sp, 80]
.LVL400:
	.loc 1 618 1 view .LVU4553
	ldp	x29, x30, [sp], 192
	.cfi_restore 30
	.cfi_restore 29
	.cfi_restore 27
	.cfi_restore 28
	.cfi_restore 25
	.cfi_restore 26
	.cfi_restore 23
	.cfi_restore 24
	.cfi_restore 21
	.cfi_restore 22
	.cfi_restore 19
	.cfi_restore 20
	.cfi_def_cfa_offset 0
.LVL401:
	.loc 1 618 1 view .LVU4554
	ret
	.cfi_endproc
.LFE74:
	.size	ge_madd, .-ge_madd
	.section	.text.ge_p2_dbl,"ax",@progbits
	.align	2
	.p2align 4,,11
	.type	ge_p2_dbl, %function
ge_p2_dbl:
.LVL402:
.LFB72:
	.loc 1 578 51 is_stmt 1 view -0
	.cfi_startproc
	.loc 1 579 3 view .LVU4556
	.loc 1 580 3 view .LVU4557
	.loc 1 582 3 view .LVU4558
.LBB3813:
.LBI3813:
	.loc 1 271 13 view .LVU4559
	.loc 1 272 3 view .LVU4560
	.loc 1 272 3 view .LVU4561
	.loc 1 272 3 view .LVU4562
	.loc 1 273 3 view .LVU4563
.LBB3814:
.LBI3814:
	.loc 2 252 36 view .LVU4564
.LBB3815:
	.loc 2 253 3 view .LVU4565
	.loc 2 254 3 view .LVU4566
	.loc 2 255 3 view .LVU4567
	.loc 2 256 3 view .LVU4568
	.loc 2 257 3 view .LVU4569
	.loc 2 258 3 view .LVU4570
	.loc 2 259 3 view .LVU4571
	.loc 2 260 3 view .LVU4572
	.loc 2 261 3 view .LVU4573
	.loc 2 262 3 view .LVU4574
	.loc 2 263 3 view .LVU4575
	.loc 2 264 3 view .LVU4576
	.loc 2 265 3 view .LVU4577
	.loc 2 266 3 view .LVU4578
	.loc 2 267 3 view .LVU4579
	.loc 2 268 3 view .LVU4580
	.loc 2 269 3 view .LVU4581
	.loc 2 270 3 view .LVU4582
	.loc 2 271 3 view .LVU4583
	.loc 2 272 3 view .LVU4584
	.loc 2 273 3 view .LVU4585
	.loc 2 274 3 view .LVU4586
	.loc 2 275 3 view .LVU4587
	.loc 2 276 3 view .LVU4588
	.loc 2 277 3 view .LVU4589
	.loc 2 278 3 view .LVU4590
	.loc 2 279 3 view .LVU4591
	.loc 2 280 3 view .LVU4592
	.loc 2 281 3 view .LVU4593
	.loc 2 282 3 view .LVU4594
	.loc 2 283 3 view .LVU4595
	.loc 2 284 3 view .LVU4596
	.loc 2 285 3 view .LVU4597
	.loc 2 286 3 view .LVU4598
	.loc 2 287 3 view .LVU4599
	.loc 2 288 3 view .LVU4600
	.loc 2 289 3 view .LVU4601
	.loc 2 290 3 view .LVU4602
	.loc 2 291 3 view .LVU4603
	.loc 2 292 3 view .LVU4604
	.loc 2 293 3 view .LVU4605
	.loc 2 294 3 view .LVU4606
	.loc 2 295 3 view .LVU4607
	.loc 2 296 3 view .LVU4608
	.loc 2 297 3 view .LVU4609
	.loc 2 298 3 view .LVU4610
	.loc 2 299 3 view .LVU4611
	.loc 2 300 3 view .LVU4612
	.loc 2 301 3 view .LVU4613
	.loc 2 302 3 view .LVU4614
	.loc 2 303 3 view .LVU4615
.LBE3815:
.LBE3814:
.LBE3813:
	.loc 1 578 51 is_stmt 0 view .LVU4616
	stp	x29, x30, [sp, -144]!
	.cfi_def_cfa_offset 144
	.cfi_offset 29, -144
	.cfi_offset 30, -136
.LBB3870:
.LBB3871:
.LBB3872:
	.loc 2 438 6 view .LVU4617
	mov	x12, 4503599627370494
.LBE3872:
.LBE3871:
.LBE3870:
	.loc 1 578 51 view .LVU4618
	mov	x29, sp
	stp	x25, x26, [sp, 64]
	.cfi_offset 25, -80
	.cfi_offset 26, -72
.LBB3901:
.LBB3843:
.LBB3816:
	.loc 2 306 14 view .LVU4619
	ldp	x25, x14, [x1, 16]
.LBE3816:
.LBE3843:
.LBE3901:
	.loc 1 578 51 view .LVU4620
	stp	x19, x20, [sp, 16]
.LBB3902:
.LBB3844:
.LBB3817:
	.loc 2 303 14 view .LVU4621
	ldr	x18, [x1, 32]
.LVL403:
	.loc 2 304 3 is_stmt 1 view .LVU4622
.LBE3817:
.LBE3844:
.LBE3902:
	.loc 1 578 51 is_stmt 0 view .LVU4623
	stp	x27, x28, [sp, 80]
.LBB3903:
.LBB3845:
.LBB3818:
	.loc 2 307 6 view .LVU4624
	add	x3, x14, x14, lsl 2
	.loc 2 309 6 view .LVU4625
	lsl	x8, x25, 1
	.loc 2 304 6 view .LVU4626
	add	x7, x18, x18, lsl 2
	.loc 2 308 6 view .LVU4627
	lsl	x26, x14, 1
	.loc 2 310 14 view .LVU4628
	ldp	x6, x13, [x1]
	.loc 2 307 6 view .LVU4629
	lsl	x3, x3, 2
	.loc 2 304 6 view .LVU4630
	lsl	x7, x7, 2
	.loc 2 307 6 view .LVU4631
	sub	x3, x3, x14
	.loc 2 304 6 view .LVU4632
	sub	x7, x7, x18
	.loc 2 305 6 view .LVU4633
	lsl	x5, x18, 1
	.loc 2 307 6 view .LVU4634
	lsl	x4, x3, 1
.LBE3818:
.LBE3845:
.LBE3903:
	.loc 1 578 51 view .LVU4635
	stp	x23, x24, [sp, 48]
.LBB3904:
.LBB3846:
.LBB3819:
	.loc 2 304 6 view .LVU4636
	lsl	x9, x7, 1
.LVL404:
	.loc 2 305 3 is_stmt 1 view .LVU4637
	.loc 2 306 3 view .LVU4638
	.loc 2 307 3 view .LVU4639
	.loc 2 308 3 view .LVU4640
	.loc 2 309 3 view .LVU4641
	.loc 2 310 3 view .LVU4642
	.loc 2 311 3 view .LVU4643
	.loc 2 312 3 view .LVU4644
	.loc 2 313 3 view .LVU4645
	.loc 2 314 3 view .LVU4646
	.loc 2 315 3 view .LVU4647
	.loc 2 316 3 view .LVU4648
	.loc 2 317 3 view .LVU4649
	.loc 2 318 3 view .LVU4650
	.loc 2 319 3 view .LVU4651
	.loc 2 320 3 view .LVU4652
	.loc 2 321 3 view .LVU4653
	.loc 2 322 3 view .LVU4654
	.loc 2 323 3 view .LVU4655
	.loc 2 324 3 view .LVU4656
	.loc 2 325 3 view .LVU4657
	.loc 2 326 3 view .LVU4658
	.loc 2 325 7 is_stmt 0 view .LVU4659
	mul	x11, x6, x6
	.loc 2 310 6 view .LVU4660
	lsl	x2, x13, 1
.LVL405:
	.loc 2 315 7 view .LVU4661
	mul	x10, x4, x25
.LBE3819:
.LBE3846:
.LBE3904:
	.loc 1 578 51 view .LVU4662
	stp	x21, x22, [sp, 32]
	.cfi_offset 19, -128
	.cfi_offset 20, -120
	.cfi_offset 27, -64
	.cfi_offset 28, -56
	.cfi_offset 23, -96
	.cfi_offset 24, -88
	.cfi_offset 21, -112
	.cfi_offset 22, -104
.LBB3905:
.LBB3847:
.LBB3820:
	.loc 2 317 7 view .LVU4663
	mul	x15, x9, x13
	umulh	x16, x9, x13
	.loc 2 315 7 view .LVU4664
	umulh	x4, x4, x25
	.loc 2 326 21 view .LVU4665
	adds	x10, x10, x15
	.loc 2 325 7 view .LVU4666
	umulh	x15, x6, x6
	.loc 2 326 21 view .LVU4667
	adc	x4, x4, x16
	.loc 2 326 7 view .LVU4668
	adds	x11, x10, x11
	adc	x4, x4, x15
.LVL406:
	.loc 2 327 3 is_stmt 1 view .LVU4669
	.loc 2 328 3 view .LVU4670
	.loc 2 329 3 view .LVU4671
	.loc 2 330 3 view .LVU4672
	.loc 2 331 3 view .LVU4673
	.loc 2 332 3 view .LVU4674
	.loc 2 333 3 view .LVU4675
	.loc 2 324 7 is_stmt 0 view .LVU4676
	mul	x10, x2, x6
	.loc 2 314 7 view .LVU4677
	mul	x15, x9, x25
	.loc 2 328 7 view .LVU4678
	and	x30, x11, 2251799813685247
.LVL407:
	.loc 2 324 7 view .LVU4679
	umulh	x2, x2, x6
.LVL408:
	.loc 2 327 24 view .LVU4680
	extr	x4, x4, x11, 51
.LVL409:
	.loc 2 313 7 view .LVU4681
	mul	x11, x3, x14
.LVL410:
	.loc 2 333 7 view .LVU4682
	adds	x4, x10, x4
.LVL411:
	.loc 2 313 7 view .LVU4683
	umulh	x3, x3, x14
.LVL412:
	.loc 2 333 7 view .LVU4684
	cinc	x2, x2, cs
	.loc 2 314 7 view .LVU4685
	umulh	x10, x9, x25
	.loc 2 333 7 view .LVU4686
	adds	x11, x11, x15
	.loc 2 320 7 view .LVU4687
	mul	x15, x13, x13
	.loc 2 333 7 view .LVU4688
	adc	x3, x3, x10
	adds	x4, x4, x11
	adc	x2, x2, x3
.LVL413:
	.loc 2 334 3 is_stmt 1 view .LVU4689
	.loc 2 335 3 view .LVU4690
	.loc 2 336 3 view .LVU4691
	.loc 2 320 7 is_stmt 0 view .LVU4692
	umulh	x3, x13, x13
	.loc 2 323 7 view .LVU4693
	mul	x11, x8, x6
	.loc 2 335 7 view .LVU4694
	and	x17, x4, 2251799813685247
.LVL414:
	.loc 2 312 7 view .LVU4695
	mul	x10, x14, x9
	.loc 2 334 24 view .LVU4696
	extr	x2, x2, x4, 51
.LVL415:
	.loc 2 336 7 view .LVU4697
	adds	x2, x2, x15
.LVL416:
	.loc 2 312 7 view .LVU4698
	umulh	x9, x14, x9
.LVL417:
	.loc 2 336 7 view .LVU4699
	cinc	x4, x3, cs
.LVL418:
	.loc 2 323 7 view .LVU4700
	umulh	x3, x8, x6
	.loc 2 336 7 view .LVU4701
	adds	x10, x10, x11
	.loc 2 322 7 view .LVU4702
	mul	x15, x26, x6
	.loc 2 336 7 view .LVU4703
	adc	x9, x9, x3
	adds	x3, x2, x10
	adc	x4, x4, x9
.LVL419:
	.loc 2 337 3 is_stmt 1 view .LVU4704
	.loc 2 338 3 view .LVU4705
	.loc 2 339 3 view .LVU4706
	.loc 2 319 7 is_stmt 0 view .LVU4707
	mul	x11, x13, x8
	.loc 2 322 7 view .LVU4708
	umulh	x2, x26, x6
	.loc 2 311 6 view .LVU4709
	mul	x10, x7, x18
	.loc 2 337 24 view .LVU4710
	extr	x4, x4, x3, 51
.LVL420:
	.loc 2 339 7 view .LVU4711
	adds	x4, x4, x15
	.loc 2 319 7 view .LVU4712
	umulh	x8, x13, x8
.LVL421:
	.loc 2 311 6 view .LVU4713
	umulh	x7, x7, x18
.LVL422:
	.loc 2 339 7 view .LVU4714
	cinc	x2, x2, cs
	adds	x10, x10, x11
	.loc 2 316 7 view .LVU4715
	umulh	x23, x25, x25
	.loc 2 339 7 view .LVU4716
	adc	x7, x7, x8
	adds	x8, x4, x10
.LBE3820:
.LBE3847:
.LBE3905:
.LBB3906:
.LBB3907:
.LBB3908:
	.loc 2 306 14 view .LVU4717
	ldp	x27, x20, [x1, 56]
.LBE3908:
.LBE3907:
.LBE3906:
.LBB3977:
.LBB3848:
.LBB3821:
	.loc 2 339 7 view .LVU4718
	adc	x2, x2, x7
.LVL423:
	.loc 2 340 3 is_stmt 1 view .LVU4719
	.loc 2 341 3 view .LVU4720
	.loc 2 316 7 is_stmt 0 view .LVU4721
	mul	x7, x25, x25
	.loc 2 340 24 view .LVU4722
	str	x8, [sp, 112]
.LBE3821:
.LBE3848:
.LBE3977:
.LBB3978:
.LBB3943:
.LBB3909:
	.loc 2 303 14 view .LVU4723
	ldr	x19, [x1, 72]
.LBE3909:
.LBE3943:
.LBE3978:
.LBB3979:
.LBB3849:
.LBB3822:
	.loc 2 340 24 view .LVU4724
	extr	x2, x2, x8, 51
.LVL424:
	.loc 2 342 7 view .LVU4725
	adds	x2, x2, x7
	.loc 2 321 7 view .LVU4726
	mul	x10, x5, x6
	.loc 2 318 7 view .LVU4727
	mul	x7, x13, x26
	.loc 2 342 7 view .LVU4728
	cinc	x23, x23, cs
	.loc 2 318 7 view .LVU4729
	umulh	x26, x13, x26
.LVL425:
	.loc 2 318 7 view .LVU4730
.LBE3822:
.LBE3849:
.LBE3979:
.LBB3980:
.LBB3944:
.LBB3910:
	.loc 2 307 6 view .LVU4731
	add	x9, x20, x20, lsl 2
.LBE3910:
.LBE3944:
.LBE3980:
.LBB3981:
.LBB3850:
.LBB3823:
	.loc 2 321 7 view .LVU4732
	umulh	x5, x5, x6
.LVL426:
	.loc 2 342 7 view .LVU4733
	adds	x10, x10, x7
.LBE3823:
.LBE3850:
.LBE3981:
.LBB3982:
.LBB3945:
.LBB3911:
	.loc 2 310 14 view .LVU4734
	ldp	x11, x15, [x1, 40]
	.loc 2 310 14 view .LVU4735
.LBE3911:
.LBE3945:
.LBE3982:
.LBB3983:
.LBB3851:
.LBB3824:
	.loc 2 342 7 view .LVU4736
	adc	x5, x5, x26
	adds	x2, x2, x10
	.loc 2 337 24 view .LVU4737
	stp	x2, x3, [sp, 96]
.LBE3824:
.LBE3851:
.LBE3983:
.LBB3984:
.LBB3946:
.LBB3912:
	.loc 2 304 6 view .LVU4738
	add	x3, x19, x19, lsl 2
.LVL427:
	.loc 2 307 6 view .LVU4739
	lsl	x9, x9, 2
.LBE3912:
.LBE3946:
.LBE3984:
.LBB3985:
.LBB3852:
.LBB3825:
	.loc 2 342 7 view .LVU4740
	adc	x23, x23, x5
.LBE3825:
.LBE3852:
.LBE3985:
.LBB3986:
.LBB3947:
.LBB3913:
	.loc 2 304 6 view .LVU4741
	lsl	x3, x3, 2
	.loc 2 307 6 view .LVU4742
	sub	x9, x9, x20
	.loc 2 304 6 view .LVU4743
	sub	x3, x3, x19
	.loc 2 325 7 view .LVU4744
	mul	x5, x11, x11
	.loc 2 307 6 view .LVU4745
	lsl	x4, x9, 1
	.loc 2 310 6 view .LVU4746
	lsl	x21, x15, 1
	.loc 2 304 6 view .LVU4747
	lsl	x16, x3, 1
.LVL428:
	.loc 2 325 7 view .LVU4748
	umulh	x10, x11, x11
	.loc 2 309 6 view .LVU4749
	lsl	x8, x27, 1
	.loc 2 309 6 view .LVU4750
.LBE3913:
.LBE3947:
.LBE3986:
.LBB3987:
.LBB3988:
.LBB3989:
	.loc 2 415 6 view .LVU4751
	add	x14, x20, x14
.LVL429:
	.loc 2 415 6 view .LVU4752
.LBE3989:
.LBE3988:
.LBE3987:
.LBB4000:
.LBB3948:
.LBB3914:
	.loc 2 315 7 view .LVU4753
	mul	x7, x4, x27
	.loc 2 308 6 view .LVU4754
	lsl	x24, x20, 1
	.loc 2 317 7 view .LVU4755
	mul	x22, x16, x15
.LBE3914:
.LBE3948:
.LBE4000:
.LBB4001:
.LBB3995:
.LBB3990:
	.loc 2 416 6 view .LVU4756
	add	x18, x19, x18
.LVL430:
	.loc 2 416 6 view .LVU4757
.LBE3990:
.LBE3995:
.LBE4001:
.LBB4002:
.LBB3949:
.LBB3915:
	.loc 2 317 7 view .LVU4758
	umulh	x2, x16, x15
.LBE3915:
.LBE3949:
.LBE4002:
.LBB4003:
.LBB3996:
.LBB3991:
	.loc 2 413 6 view .LVU4759
	add	x13, x15, x13
.LVL431:
	.loc 2 413 6 view .LVU4760
.LBE3991:
.LBE3996:
.LBE4003:
.LBB4004:
.LBB3950:
.LBB3916:
	.loc 2 315 7 view .LVU4761
	umulh	x4, x4, x27
	.loc 2 326 21 view .LVU4762
	adds	x7, x7, x22
	.loc 2 314 7 view .LVU4763
	mul	x26, x16, x27
	.loc 2 326 21 view .LVU4764
	adc	x4, x4, x2
	.loc 2 326 7 view .LVU4765
	adds	x7, x7, x5
	adc	x4, x4, x10
	.loc 2 324 7 view .LVU4766
	mul	x5, x21, x11
	umulh	x2, x21, x11
	.loc 2 305 6 view .LVU4767
	lsl	x10, x19, 1
	.loc 2 313 7 view .LVU4768
	mul	x21, x9, x20
	.loc 2 327 24 view .LVU4769
	extr	x4, x4, x7, 51
	.loc 2 314 7 view .LVU4770
	umulh	x22, x16, x27
	.loc 2 333 7 view .LVU4771
	adds	x5, x5, x4
	.loc 2 313 7 view .LVU4772
	umulh	x9, x9, x20
	.loc 2 333 7 view .LVU4773
	cinc	x2, x2, cs
	adds	x21, x21, x26
	.loc 2 320 7 view .LVU4774
	mul	x4, x15, x15
	.loc 2 333 7 view .LVU4775
	adc	x9, x9, x22
	adds	x5, x5, x21
	adc	x9, x2, x9
	.loc 2 312 7 view .LVU4776
	mul	x21, x20, x16
	.loc 2 320 7 view .LVU4777
	umulh	x2, x15, x15
	.loc 2 328 7 view .LVU4778
	and	x7, x7, 2251799813685247
	.loc 2 323 7 view .LVU4779
	mul	x22, x8, x11
	.loc 2 334 24 view .LVU4780
	extr	x9, x9, x5, 51
	.loc 2 336 7 view .LVU4781
	adds	x9, x9, x4
	.loc 2 312 7 view .LVU4782
	umulh	x16, x20, x16
	.loc 2 323 7 view .LVU4783
	umulh	x4, x8, x11
	.loc 2 336 7 view .LVU4784
	cinc	x20, x2, cs
	adds	x22, x21, x22
	.loc 2 321 7 view .LVU4785
	mul	x28, x10, x11
	.loc 2 336 7 view .LVU4786
	adc	x4, x16, x4
	adds	x22, x9, x22
.LBE3916:
